(dp0
S'writings'
p1
I11
sS'fig.'
p2
I59
sS'fig*'
p3
I16
sS'yellow'
p4
I41
sS'four'
p5
I461
sS'woods'
p6
I15
sS'hanging'
p7
I23
sS'aggression'
p8
I13
sS'looking'
p9
I264
sS'eligible'
p10
I13
sS'electricity'
p11
I38
sS'lord'
p12
I20
sS'co-operation'
p13
I35
sS'regional'
p14
I78
sS'fur'
p15
I10
sS'bringing'
p16
I49
sS'no-one*'
p17
I21
sS'prize'
p18
I31
sS'wooden'
p19
I35
sS'wednesday'
p20
I44
sS'coventry'
p21
I12
sS'succession'
p22
I19
sS'commented'
p23
I20
sS'her*'
p24
I1085
sS'charter'
p25
I22
sS'specially'
p26
I20
sS'tired'
p27
I40
sS'miller'
p28
I20
sS'pulse'
p29
I11
sS'budget'
p30
I82
sS'elegant'
p31
I18
sS'second'
p32
I56
sS'available'
p33
I272
sS'errors'
p34
I21
sS'cooking'
p35
I11
sS'contributed'
p36
I23
sS'fingers'
p37
I58
sS'increasing'
p38
I26
sS'specialist'
p39
I37
sS'hero'
p40
I23
sS'reporter'
p41
I12
sS'leaning'
p42
I14
sS'here'
p43
I699
sS'atoms'
p44
I11
sS'reported'
p45
I114
sS'china'
p46
I46
sS'hers'
p47
I25
sS'kids'
p48
I44
sS'elaborate'
p49
I13
sS'climbed'
p50
I24
sS'in~*'
p51
I20
sS'reports'
p52
I35
sS'controversy'
p53
I19
sS'military'
p54
I108
sS'criticism'
p55
I48
sS'golden'
p56
I39
sS'divide'
p57
I12
sS'classification'
p58
I17
sS'explained'
p59
I71
sS'replace'
p60
I34
sS'brought'
p61
I204
sS'unix'
p62
I42
sS'unit'
p63
I109
sS'opponents'
p64
I16
sS'dna'
p65
I33
sS'spoke'
p66
I70
sS'42'
p67
I14
sS'music'
p68
I150
sS'therefore'
p69
I232
sS'strike'
p70
I18
sS'until'
p71
I167
sS'females'
p72
I20
sS'holy'
p73
I30
sS'relax'
p74
I18
sS'successful'
p75
I108
sS'brings'
p76
I32
sS'hurt'
p77
I38
sS'glass'
p78
I95
sS'90'
p79
I23
sS'hole'
p80
I46
sS'hold'
p81
I30
sS'circumstances'
p82
I104
sS'vat/vat'
p83
I24
sS'locked'
p84
I26
sS'pursue'
p85
I20
sS'blade'
p86
I11
sS'temperatures'
p87
I14
sS'concepts'
p88
I27
sS'revenues'
p89
I12
sS'admits'
p90
I13
sS'example'
p91
I125
sS'household'
p92
I39
sS'organized'
p93
I20
sS'currency'
p94
I35
sS'caution'
p95
I13
sS'want'
p96
I572
sS'absolute'
p97
I35
sS'provincial'
p98
I16
sS'travel'
p99
I36
sS'damage'
p100
I13
sS'machine'
p101
I84
sS'how'
p102
I1016
sS'hot'
p103
I91
sS'significance'
p104
I47
sS'beauty'
p105
I42
sS'diagram'
p106
I13
sS'wrong'
p107
I149
sS'types'
p108
I89
sS'effective'
p109
I99
sS'headquarters'
p110
I28
sS'cigarettes'
p111
I13
sS'18th'
p112
I10
sS'keeps'
p113
I26
sS'democratic'
p114
I59
sS'wing'
p115
I28
sS'wind'
p116
I71
sS'wine'
p117
I63
sS'restriction'
p118
I12
sS'feedback'
p119
I13
sS'welcomed'
p120
I23
sS'vary'
p121
I30
sS'fit'
p122
I30
sS'screaming'
p123
I12
sS'fix'
p124
I12
sS'auditors'
p125
I12
sS'wales'
p126
I93
sS'hidden'
p127
I13
sS'easier'
p128
I12
sS'effects'
p129
I108
sS'schools'
p130
I154
sS'sixteen'
p131
I27
sS'silver'
p132
I39
sS'structural'
p133
I27
sS'represents'
p134
I33
sS'debut'
p135
I16
sS'a lot'
p136
I40
sS'arrow'
p137
I10
sS'financial'
p138
I165
sS'in short'
p139
I13
sS'series'
p140
I144
sS'allan'
p141
I10
sS'commons'
p142
I33
sS'fortnight'
p143
I14
sS'substantially'
p144
I17
sS'laboratory'
p145
I27
sS'ring'
p146
I29
sS'borne'
p147
I11
sS'encourage'
p148
I51
sS'adapt'
p149
I10
sS'engineer'
p150
I22
sS'foundation'
p151
I37
sS'assured'
p152
I18
sS'threatened'
p153
I37
sS'surveys'
p154
I19
sS'managerial'
p155
I13
sS'necessarily'
p156
I57
sS'checked'
p157
I25
sS'estimate'
p158
I17
sS'knit'
p159
I11
sS'enormous'
p160
I42
sS'ate'
p161
I18
sS'shelves'
p162
I12
sS'musicians'
p163
I12
sS'1970s'
p164
I34
sS'kingdom'
p165
I22
sS'r.'
p166
I19
sS'nigel'
p167
I34
sS'as yet'
p168
I14
sS'meet'
p169
I141
sS'channels'
p170
I18
sS'wash'
p171
I17
sS'clarity'
p172
I11
sS'service'
p173
I300
sS'similarly'
p174
I45
sS'engagement'
p175
I12
sS'needed'
p176
I165
sS'master'
p177
I62
sS'listed'
p178
I25
sS'such as'
p179
I321
sS'gilbert'
p180
I11
sS'legs'
p181
I65
sS'bitter'
p182
I24
sS'ranging'
p183
I15
sS'listen'
p184
I57
sS'rewards'
p185
I11
sS'in terms of'
p186
I102
sS'collapse'
p187
I21
sS'geneva'
p188
I10
sS'frowned'
p189
I13
sS'wisdom'
p190
I15
sS'a little'
p191
I104
sS'positively'
p192
I13
sS'showed'
p193
I107
sS'tree'
p194
I64
sS'nations'
p195
I41
sS'project'
p196
I141
sS'feeling'
p197
I58
sS'acquisition'
p198
I26
sS'willingness'
p199
I12
sS'spectrum'
p200
I16
sS'dozen'
p201
I27
sS'affairs'
p202
I73
sS'concrete'
p203
I18
sS'responsible'
p204
I94
sS'recommended'
p205
I32
sS'causing'
p206
I33
sS'absorbed'
p207
I15
sS'doors'
p208
I48
sS'shall'
p209
I202
sS'object'
p210
I10
sS'victoria'
p211
I26
sS'mouth'
p212
I93
sS'letter'
p213
I136
sS'organization'
p214
I63
sS'morality'
p215
I12
sS'bradford'
p216
I12
sS'singer'
p217
I13
sS'episode'
p218
I13
sS'let alone'
p219
I13
sS'professor'
p220
I52
sS'camp'
p221
I31
sS'nineteenth'
p222
I33
sS'contrary to'
p223
I13
sS'came'
p224
I472
sS'relative to'
p225
I10
sS'saying'
p226
I180
sS'bomb'
p227
I27
sS'insects'
p228
I14
sS'meetings'
p229
I54
sS'participate'
p230
I17
sS'hungary'
p231
I15
sS'tempted'
p232
I12
sS'lessons'
p233
I23
sS'busy'
p234
I50
sS'layout'
p235
I12
sS'louise'
p236
I15
sS'menu'
p237
I16
sS'than'
p238
I1033
sS'theme'
p239
I39
sS'touched'
p240
I30
sS'rich'
p241
I67
sS'rice'
p242
I16
sS'plate'
p243
I41
sS'psychiatric'
p244
I11
sS'pocket'
p245
I35
sS'altogether'
p246
I32
sS'tips'
p247
I11
sS'societies'
p248
I44
sS'at least'
p249
I257
sS'patch'
p250
I16
sS'release'
p251
I18
sS'atomic'
p252
I11
sS'respond'
p253
I35
sS'blew'
p254
I13
sS'disaster'
p255
I28
sS'fair'
p256
I84
sS'sensitivity'
p257
I16
sS'result'
p258
I34
sS'fail'
p259
I33
sS'resigned'
p260
I20
sS'best'
p261
I81
sS'ambitions'
p262
I10
sS'lots'
p263
I45
sS'rings'
p264
I12
sS'pressures'
p265
I27
sS'score'
p266
I14
sS'conceptual'
p267
I10
sS'ira'
p268
I18
sS'occupational'
p269
I17
sS'glasgow'
p270
I42
sS'preserve'
p271
I15
sS'wage'
p272
I31
sS'men'
p273
I389
sS'extend'
p274
I31
sS'nature'
p275
I181
sS'rolled'
p276
I20
sS'extent'
p277
I100
sS'carbon'
p278
I25
sS'debt'
p279
I54
sS'pity'
p280
I17
sS'accident'
p281
I64
sS'country'
p282
I319
sS'conclusions'
p283
I24
sS'heating'
p284
I20
sS'demanded'
p285
I37
sS'lot*'
p286
I246
sS'estates'
p287
I20
sS'planned'
p288
I14
sS'logic'
p289
I23
sS'argue'
p290
I43
sS'adapted'
p291
I14
sS'asked'
p292
I334
sS'pregnancy'
p293
I16
sS'250'
p294
I12
sS'organisational'
p295
I10
sS'angel'
p296
I14
sS'source'
p297
I91
sS'union'
p298
I10
sS'criticised'
p299
I13
sS'much'
p300
I390
sS'privilege'
p301
I16
sS'life'
p302
I566
sS'sydney'
p303
I10
sS'eastern'
p304
I59
sS'worker'
p305
I36
sS'wish'
p306
I16
sS'dave'
p307
I27
sS'substance'
p308
I22
sS'child'
p309
I244
sS'worked'
p310
I127
sS'commerce'
p311
I16
sS'presidency'
p312
I12
sS'administrative'
p313
I35
sS'organisers'
p314
I11
sS'employ'
p315
I17
sS'calcium'
p316
I13
sS'remembering'
p317
I15
sS'played'
p318
I112
sS'player'
p319
I57
sS'eighteen'
p320
I30
sS'hong'
p321
I28
sS'things'
p322
I424
sS'demands'
p323
I51
sS'damages'
p324
I22
sS'babies'
p325
I25
sS'european'
p326
I195
sS'fairly'
p327
I67
sS'qualifications'
p328
I23
sS'workforce'
p329
I15
sS'ownership'
p330
I31
sS'supper'
p331
I15
sS'tune'
p332
I14
sS'vice-president'
p333
I11
sS'hon.'
p334
I105
sS'echoed'
p335
I10
sS'academic'
p336
I47
sS'corporate'
p337
I46
sS'opinions'
p338
I18
sS'birmingham'
p339
I34
sS'previous'
p340
I123
sS'dining'
p341
I16
sS'ease'
p342
I11
sS'had'
p343
I4452
sS'ideal'
p344
I47
sS'macdonald'
p345
I10
sS'collections'
p346
I18
sS'innocent'
p347
I21
sS'prison'
p348
I64
sS'has'
p349
I2593
sS'hat'
p350
I31
sS'survival'
p351
I31
sS'posed'
p352
I13
sS'possible'
p353
I342
sS'possibly'
p354
I73
sS'birth'
p355
I52
sS'shadow'
p356
I30
sS'unique'
p357
I43
sS'occurring'
p358
I13
sS'desire'
p359
I51
sS'psychological'
p360
I28
sS'alice'
p361
I25
sS'remind'
p362
I17
sS'as well as'
p363
I176
sS'steps'
p364
I67
sS'beneficial'
p365
I14
sS'right'
p366
I169
sS'old'
p367
I544
sS'crowd'
p368
I43
sS'people'
p369
I1241
sS'crown'
p370
I51
sS'consultants'
p371
I16
sS'enemies'
p372
I15
sS'chorus'
p373
I10
sS'sociology'
p374
I20
sS'for'
p375
I139
sS'bottom'
p376
I18
sS'so long as'
p377
I13
sS'fox'
p378
I14
sS'creative'
p379
I25
sS'individuals'
p380
I80
sS'defensive'
p381
I13
sS'losing'
p382
I35
sS'manufacturing'
p383
I42
sS'dollars'
p384
I17
sS'citizens'
p385
I33
sS'despair'
p386
I13
sS'lacked'
p387
I12
sS'slightly'
p388
I89
sS'match'
p389
I27
sS'raised'
p390
I95
sS'statements'
p391
I41
sS'facility'
p392
I22
sS'maxwell'
p393
I13
sS'marshall'
p394
I15
sS'son'
p395
I131
sS'respectable'
p396
I12
sS'beings'
p397
I18
sS'magazines'
p398
I17
sS'raises'
p399
I14
sS'reducing'
p400
I29
sS'defendants'
p401
I16
sS'fabric'
p402
I21
sS'support'
p403
I97
sS'solicitors'
p404
I26
sS'width'
p405
I12
sS'joseph'
p406
I30
sS'jane'
p407
I42
sS'happy'
p408
I117
sS'offer'
p409
I60
sS'forming'
p410
I18
sS'nov.'
p411
I29
sS'away from'
p412
I120
sS'inside'
p413
I12
sS'devices'
p414
I22
sS'jan.'
p415
I31
sS'jan*'
p416
I14
sS'panels'
p417
I12
sS'passenger'
p418
I20
sS'proud'
p419
I32
sS'proved'
p420
I69
sS'steady'
p421
I25
sS'tournament'
p422
I16
sS'exist'
p423
I54
sS'accounting'
p424
I12
sS'dealer'
p425
I18
sS'negotiations'
p426
I37
sS'protested'
p427
I12
sS'eventual'
p428
I10
sS'floor'
p429
I115
sS'populations'
p430
I15
sS'actor'
p431
I20
sS'flood'
p432
I12
sS'role'
p433
I182
sS'ambitious'
p434
I15
sS'developers'
p435
I12
sS'smell'
p436
I12
sS'roll'
p437
I15
sS"'s"
p438
I3490
sS'models'
p439
I53
sS'devon'
p440
I13
sS'invested'
p441
I13
sS'variable'
p442
I13
sS"'m"
p443
I658
sS'time'
p444
I1542
sS'push'
p445
I30
sS'slope'
p446
I14
sS'measurements'
p447
I14
sS'chain'
p448
I37
sS'whoever'
p449
I15
sS'resources'
p450
I105
sS'ai~*'
p451
I36
sS'chair'
p452
I77
sS'93'
p453
I13
sS'ballet'
p454
I12
sS'leicester'
p455
I19
sS'cheap'
p456
I39
sS'intake'
p457
I12
sS'choice'
p458
I120
sS'exact'
p459
I22
sS'minute'
p460
I82
sS'leave'
p461
I22
sS'solved'
p462
I12
sS'settle'
p463
I25
sS'team'
p464
I186
sS'speculation'
p465
I17
sS'unaware'
p466
I12
sS'prevent'
p467
I68
sS'spiritual'
p468
I23
sS'occurrence'
p469
I11
sS'findings'
p470
I33
sS'sigh'
p471
I11
sS'sign'
p472
I25
sS'hewlett-packard'
p473
I10
sS'celebrated'
p474
I10
sS'current'
p475
I133
sS'remembered'
p476
I54
sS'falling'
p477
I44
sS'ground'
p478
I154
sS'boost'
p479
I10
sS'jury'
p480
I23
sS'honour'
p481
I22
sS'funeral'
p482
I21
sS'understanding'
p483
I19
sS'yards'
p484
I37
sS'address'
p485
I20
sS'alone'
p486
I54
sS'along'
p487
I70
sS'passengers'
p488
I26
sS'brilliant'
p489
I35
sS'studied'
p490
I39
sS'wherever'
p491
I23
sS'commonly'
p492
I26
sS'~na*'
p493
I150
sS'studies'
p494
I136
sS'tasks'
p495
I37
sS'love'
p496
I86
sS'santa'
p497
I12
sS'prefer'
p498
I37
sS'logical'
p499
I23
sS'bloody'
p500
I20
sS'carol'
p501
I10
sS'working'
p502
I38
sS'positive'
p503
I83
sS'angry'
p504
I42
sS'tightly'
p505
I17
sS'explicitly'
p506
I13
sS'opposed'
p507
I19
sS'wondering'
p508
I25
sS'films'
p509
I35
sS'scope'
p510
I34
sS'theoretical'
p511
I30
sS'wicked'
p512
I11
sS'introducing'
p513
I18
sS'afford'
p514
I45
sS'apparent'
p515
I53
sS'validity'
p516
I14
sS'visual'
p517
I34
sS'appendix'
p518
I18
sS'everywhere'
p519
I32
sS'virtue'
p520
I19
sS'behalf'
p521
I13
sS'honey'
p522
I11
sS'valued'
p523
I13
sS'originally'
p524
I45
sS'davies'
p525
I21
sS'abortion'
p526
I12
sS'believes'
p527
I40
sS'printing'
p528
I13
sS'values'
p529
I75
sS'believed'
p530
I82
sS'admired'
p531
I11
sS'allowed'
p532
I143
sS'evidently'
p533
I15
sS'monitoring'
p534
I11
sS'winter'
p535
I71
sS'divided'
p536
I40
sS'on top of'
p537
I26
sS's.'
p538
I19
sS'edinburgh'
p539
I60
sS'spot'
p540
I41
sS'applications'
p541
I63
sS'explored'
p542
I12
sS'date'
p543
I158
sS'such'
p544
I763
sS'revealed'
p545
I53
sS'stress'
p546
I10
sS'natural'
p547
I142
sS'varieties'
p548
I15
sS'sectors'
p549
I23
sS'conscious'
p550
I31
sS'tenants'
p551
I20
sS'applicant'
p552
I12
sS'st'
p553
I13
sS'so'
p554
I258
sS'definitions'
p555
I13
sS'pulled'
p556
I70
sS'unacceptable'
p557
I12
sS'years'
p558
I902
sS'course'
p559
I187
sS'experiments'
p560
I29
sS'tendency'
p561
I29
sS'constituted'
p562
I10
sS'limbs'
p563
I11
sS'thumb'
p564
I11
sS'jim'
p565
I43
sS'sixties'
p566
I14
sS'councillor'
p567
I25
sS'attraction'
p568
I15
sS'suspicion'
p569
I16
sS'constitutes'
p570
I10
sS'suspension'
p571
I14
sS'tory'
p572
I34
sS'petition'
p573
I12
sS'instantly'
p574
I16
sS'thereby'
p575
I27
sS'civilian'
p576
I12
sS'matches'
p577
I23
sS'nation'
p578
I44
sS'records'
p579
I71
sS'arriving'
p580
I16
sS'sorted'
p581
I13
sS'maintaining'
p582
I21
sS'matched'
p583
I14
sS'shouted'
p584
I29
sS'establishing'
p585
I21
sS'amnesty'
p586
I11
sS'quarter'
p587
I74
sS'square'
p588
I26
sS'receipt'
p589
I12
sS'entering'
p590
I22
sS'sexually'
p591
I10
sS'neighbourhood'
p592
I15
sS'canvas'
p593
I11
sS'contained'
p594
I49
sS'investigation'
p595
I51
sS'suggesting'
p596
I25
sS'formula'
p597
I27
sS'sheffield'
p598
I21
sS'million'
p599
I245
sS'seventh'
p600
I15
sS'possibility'
p601
I71
sS'quite'
p602
I412
sS'recordings'
p603
I11
sS'complicated'
p604
I29
sS'besides'
p605
I18
sS'poems'
p606
I16
sS'remainder'
p607
I17
sS'seventy'
p608
I29
sS'training'
p609
I11
sS'programming'
p610
I11
sS'modest'
p611
I23
sS'gordon'
p612
I26
sS'routes'
p613
I21
sS'emotion'
p614
I15
sS'saving'
p615
I10
sS'reveals'
p616
I16
sS'spoken'
p617
I28
sS'clause'
p618
I36
sS'one'
p619
I953
sS'submit'
p620
I12
sS'spanish'
p621
I34
sS'vote'
p622
I23
sS'open'
p623
I76
sS'city'
p624
I231
sS'indicate'
p625
I41
sS'2'
p626
I344
sS'draft'
p627
I26
sS'bits'
p628
I34
sS'williams'
p629
I33
sS'proving'
p630
I11
sS'ridiculous'
p631
I19
sS'specialists'
p632
I14
sS'representing'
p633
I23
sS'boyfriend'
p634
I11
sS'bit*'
p635
I137
sS'depressed'
p636
I15
sS'rival'
p637
I14
sS'future'
p638
I85
sS'sophie'
p639
I13
sS'russia'
p640
I43
sS'prospect'
p641
I32
sS'addressing'
p642
I11
sS'illness'
p643
I33
sS'san'
p644
I25
sS'sam'
p645
I31
sS'turned'
p646
I246
sS'locations'
p647
I15
sS'sad'
p648
I34
sS'say'
p649
I679
sS'buried'
p650
I24
sS'allen'
p651
I18
sS'turner'
p652
I11
sS'borough'
p653
I19
sS'saw'
p654
I261
sS'sat'
p655
I121
sS'fashionable'
p656
I12
sS'aside'
p657
I36
sS'instructed'
p658
I12
sS'note'
p659
I46
sS'intends'
p660
I11
sS'take'
p661
I715
sS'wanting'
p662
I24
sS'printer'
p663
I17
sS'altered'
p664
I16
sS'goodbye'
p665
I10
sS'opposite'
p666
I12
sS'knew'
p667
I261
sS'printed'
p668
I13
sS'remarks'
p669
I19
sS'knee'
p670
I20
sS'pages'
p671
I44
sS'lawn'
p672
I11
sS'~n~*'
p673
I42
sS'average'
p674
I36
sS'phil'
p675
I20
sS'constable'
p676
I18
sS'drive'
p677
I44
sS'ways'
p678
I149
sS'atlantic'
p679
I22
sS'salt'
p680
I29
sS'laws'
p681
I48
sS'walking'
p682
I17
sS'surplus'
p683
I13
sS'rather than'
p684
I46
sS'bright'
p685
I54
sS'aggressive'
p686
I19
sS'imagined'
p687
I17
sS'fibre'
p688
I15
sS'slow'
p689
I48
sS'as to'
p690
I73
sS'liberation'
p691
I18
sS'tears'
p692
I43
sS'on board'
p693
I14
sS'equipped'
p694
I16
sS'caroline'
p695
I19
sS'dispute'
p696
I30
sS'assistant'
p697
I18
sS'prime'
p698
I121
sS'resource'
p699
I22
sS'artist'
p700
I41
sS'middle-class'
p701
I13
sS'borrow'
p702
I15
sS'worried'
p703
I38
sS'priest'
p704
I21
sS'roger'
p705
I26
sS'landlord'
p706
I27
sS'liable'
p707
I22
sS'where'
p708
I458
sS'vision'
p709
I42
sS'isabel'
p710
I13
sS'surgery'
p711
I27
sS'jumped'
p712
I24
sS'sites'
p713
I58
sS'sponsorship'
p714
I12
sS'bureau'
p715
I14
sS'affecting'
p716
I17
sS'jobs'
p717
I97
sS'uk'
p718
I173
sS'vertical'
p719
I18
sS'screen'
p720
I48
sS'supermarket'
p721
I11
sS'concentrate'
p722
I31
sS'awards'
p723
I23
sS'concentrated'
p724
I24
sS'many'
p725
I902
sS's'
p726
I10
sS'loudly'
p727
I11
sS'expression'
p728
I75
sS'allowance'
p729
I22
sS'twin'
p730
I16
sS'considers'
p731
I12
sS'boat'
p732
I54
sS'stretch'
p733
I12
sS'west'
p734
I88
sS'locally'
p735
I18
sS'breath'
p736
I51
sS'practised'
p737
I10
sS'combined'
p738
I17
sS'motives'
p739
I10
sS'wants'
p740
I89
sS'enable'
p741
I48
sS'thousand'
p742
I104
sS'formed'
p743
I70
sS'observe'
p744
I17
sS'former'
p745
I170
sS'on to'
p746
I92
sS'consultant'
p747
I16
sS'polls'
p748
I11
sS'engineering'
p749
I51
sS'policies'
p750
I88
sS'newspaper'
p751
I50
sS'situation'
p752
I160
sS'constituency'
p753
I19
sS'aluminium'
p754
I10
sS'engaged'
p755
I27
sS'his*'
p756
I49
sS'technology'
p757
I118
sS'fame'
p758
I12
sS'missiles'
p759
I10
sS'sterling'
p760
I16
sS'sickness'
p761
I12
sS'allocation'
p762
I18
sS'edges'
p763
I17
sS'advertisement'
p764
I12
sS'costs'
p765
I32
sS'trains'
p766
I19
sS'dimension'
p767
I16
sS'summer'
p768
I113
sS'being'
p769
I28
sS'rest'
p770
I20
sS'weekly'
p771
I23
sS'rover'
p772
I13
sS'instrument'
p773
I26
sS'aspects'
p774
I73
sS'around'
p775
I215
sS'sums'
p776
I15
sS'dark'
p777
I31
sS'traffic'
p778
I67
sS'pop'
p779
I10
sS'world'
p780
I590
sS'vague'
p781
I15
sS'dare'
p782
I12
sS'satisfaction'
p783
I29
sS'intel'
p784
I12
sS'stranger'
p785
I13
sS'clay'
p786
I15
sS'satisfactory'
p787
I22
sS'superintendent'
p788
I10
sS'lebanon'
p789
I11
sS'racial'
p790
I14
sS'divine'
p791
I13
sS'thinks'
p792
I39
sS'dimensions'
p793
I14
sS'memories'
p794
I26
sS'tube'
p795
I20
sS'exit'
p796
I10
sS'refer'
p797
I38
sS'scientific'
p798
I59
sS'power'
p799
I318
sS'intimate'
p800
I11
sS'leadership'
p801
I48
sS'executives'
p802
I13
sS'stone'
p803
I79
sS'origins'
p804
I18
sS'package'
p805
I57
sS'industry'
p806
I198
sS'meal'
p807
I43
sS'act'
p808
I59
sS'luck'
p809
I32
sS'pylori'
p810
I11
sS'burning'
p811
I13
sS'image'
p812
I75
sS'essex'
p813
I23
sS'lively'
p814
I15
sS'homeless'
p815
I11
sS'parties'
p816
I127
sS'technically'
p817
I10
sS'cared'
p818
I13
sS'legacy'
p819
I11
sS'hey'
p820
I18
sS'sides'
p821
I63
sS'slopes'
p822
I10
sS'complete'
p823
I34
sS'mick'
p824
I15
sS'survived'
p825
I27
sS'technologies'
p826
I15
sS'with'
p827
I6575
sS'buying'
p828
I41
sS'handsome'
p829
I17
sS'pull'
p830
I40
sS'rush'
p831
I13
sS'october'
p832
I106
sS'monopoly'
p833
I16
sS'dirty'
p834
I26
sS'politically'
p835
I17
sS'agree'
p836
I82
sS'misery'
p837
I13
sS'detailed'
p838
I60
sS'gone'
p839
I195
sS'johnny'
p840
I15
sS'ah'
p841
I99
sS'am'
p842
I256
sS'al'
p843
I10
sS'wartime'
p844
I10
sS'an'
p845
I3430
sS'as'
p846
I567
sS'at'
p847
I4790
sS'cathedral'
p848
I24
sS'watched'
p849
I67
sS'gon~'
p850
I125
sS'appalling'
p851
I11
sS'cream'
p852
I31
sS'ideally'
p853
I12
sS'vocational'
p854
I10
sS'tight'
p855
I11
sS'spatial'
p856
I12
sS'congress'
p857
I55
sS'a.'
p858
I28
sS'gifts'
p859
I17
sS'accounts'
p860
I65
sS'terry'
p861
I25
sS'gastric'
p862
I21
sS'acids'
p863
I10
sS'mask'
p864
I11
sS'having'
p865
I353
sS'mass'
p866
I35
sS'adam'
p867
I35
sS'original'
p868
I108
sS'consider'
p869
I117
sS'caused'
p870
I96
sS'tours'
p871
I10
sS'welfare'
p872
I48
sS'reasoning'
p873
I10
sS'causes'
p874
I20
sS'particles'
p875
I17
sS'hunting'
p876
I18
sS'tv'
p877
I65
sS'illustrates'
p878
I11
sS'spirit'
p879
I65
sS'to'
p880
I9343
sS'tail'
p881
I27
sS'smile'
p882
I11
sS'paying'
p883
I46
sS'appointment'
p884
I45
sS'returned'
p885
I103
sS'puzzled'
p886
I10
sS'hughes'
p887
I17
sS'diary'
p888
I20
sS'condition'
p889
I83
sS'cable'
p890
I18
sS'marvellous'
p891
I18
sS'laying'
p892
I13
sS'joined'
p893
I72
sS'large'
p894
I337
sS'sang'
p895
I12
sS'sand'
p896
I30
sS'adjust'
p897
I11
sS'harry'
p898
I46
sS'small'
p899
I435
sS'sank'
p900
I11
sS'maggie'
p901
I27
sS'penalties'
p902
I11
sS'past'
p903
I21
sS'l / l'
p904
I31
sS'displays'
p905
I11
sS'pass'
p906
I18
sS'situated'
p907
I20
sS'handicapped'
p908
I10
sS'richard'
p909
I100
sS'clock'
p910
I29
sS'section'
p911
I186
sS'scientists'
p912
I35
sS'nurse'
p913
I32
sS'method'
p914
I91
sS'contrast'
p915
I62
sS'full'
p916
I281
sS'hours'
p917
I189
sS'ignore'
p918
I25
sS'november'
p919
I94
sS'legend'
p920
I12
sS'compliance'
p921
I13
sS'experience'
p922
I25
sS'prior'
p923
I12
sS'pick'
p924
I60
sS'action'
p925
I221
sS'corps'
p926
I12
sS'via'
p927
I45
sS'followed'
p928
I149
sS'regiment'
p929
I12
sS'select'
p930
I12
sS'literary'
p931
I34
sS'attendance'
p932
I18
sS'oxfordshire'
p933
I16
sS'objectives'
p934
I43
sS'6'
p935
I134
sS'more'
p936
I699
sS'door'
p937
I254
sS'initiated'
p938
I12
sS'substances'
p939
I13
sS'company'
p940
I401
sS'tested'
p941
I26
sS'foundations'
p942
I14
sS'objections'
p943
I13
sS'keeping'
p944
I60
sS'gravel'
p945
I12
sS'science'
p946
I106
sS'next to'
p947
I30
sS'indicating'
p948
I15
sS'morgan'
p949
I18
sS'learn'
p950
I83
sS'knocked'
p951
I23
sS'in that'
p952
I18
sS'beautiful'
p953
I87
sS'stated'
p954
I48
sS'lives'
p955
I27
sS'suggestions'
p956
I21
sS'accept'
p957
I98
sS'autumn'
p958
I39
sS'erosion'
p959
I12
sS'sense'
p960
I213
sS'dress'
p961
I42
sS'axis'
p962
I10
sS'information'
p963
I386
sS'respective'
p964
I12
sS'hugh'
p965
I21
sS'per cent'
p966
I382
sS'dismissed'
p967
I30
sS'disturbed'
p968
I12
sS'earnings'
p969
I32
sS'creature'
p970
I19
sS'waved'
p971
I15
sS'plant'
p972
I74
sS'intended'
p973
I70
sS'countryside'
p974
I39
sS'plane'
p975
I34
sS'director'
p976
I122
sS'waves'
p977
I27
sS'appealed'
p978
I14
sS'on the part of'
p979
I15
sS'register'
p980
I10
sS'broadcasting'
p981
I16
sS'fundamental'
p982
I45
sS'replied'
p983
I56
sS'as usual'
p984
I13
sS'passages'
p985
I11
sS'bowl'
p986
I23
sS'installed'
p987
I20
sS'attitude'
p988
I60
sS'paper'
p989
I173
sS'scott'
p990
I32
sS'signs'
p991
I47
sS'smiling'
p992
I22
sS'its'
p993
I1632
sS'roots'
p994
I25
sS'rapidly'
p995
I46
sS'once more'
p996
I24
sS'symptoms'
p997
I31
sS'followers'
p998
I10
sS'travelling'
p999
I24
sS'sauce'
p1000
I14
sS'colleague'
p1001
I17
sS'entire'
p1002
I48
sS'propose'
p1003
I14
sS'always'
p1004
I462
sS'isle'
p1005
I14
sS'courses'
p1006
I80
sS'reactions'
p1007
I21
sS'england'
p1008
I231
sS'upstairs'
p1009
I25
sS'reduce'
p1010
I71
sS'police'
p1011
I278
sS'investigated'
p1012
I15
sS'measurement'
p1013
I17
sS'operation'
p1014
I100
sS'really'
p1015
I481
sS'try'
p1016
I11
sS'psychology'
p1017
I26
sS'blacks'
p1018
I14
sS'research'
p1019
I14
sS'ministerial'
p1020
I10
sS'darling'
p1021
I23
sS'occurs'
p1022
I33
sS'belief'
p1023
I51
sS'risen'
p1024
I17
sS'1920s'
p1025
I11
sS'qualify'
p1026
I13
sS'imagine'
p1027
I61
sS'driven'
p1028
I30
sS'pairs'
p1029
I21
sS'retained'
p1030
I24
sS'testament'
p1031
I12
sS'castle'
p1032
I47
sS'arose'
p1033
I16
sS'major'
p1034
I11
sS'gazed'
p1035
I11
sS'slipped'
p1036
I26
sS'historian'
p1037
I14
sS'thereafter'
p1038
I14
sS'number'
p1039
I493
sS'preservation'
p1040
I11
sS'murmured'
p1041
I19
sS'guess'
p1042
I24
sS'heads'
p1043
I52
sS'even when'
p1044
I24
sS'jet'
p1045
I13
sS'introduction'
p1046
I66
sS'threatening'
p1047
I17
sS'calculations'
p1048
I12
sS'molecular'
p1049
I13
sS'relationship'
p1050
I129
sS'interviewed'
p1051
I15
sS'immediate'
p1052
I61
sS'appreciation'
p1053
I13
sS'demonstrations'
p1054
I15
sS'consult'
p1055
I12
sS'stairs'
p1056
I36
sS'grace'
p1057
I15
sS'freud'
p1058
I16
sS'determined'
p1059
I16
sS'marriage'
p1060
I79
sS'organisations'
p1061
I51
sS'sell'
p1062
I76
sS'self'
p1063
I36
sS'also'
p1064
I1248
sS'internal'
p1065
I67
sS'play'
p1066
I67
sS'swiftly'
p1067
I12
sS'virus'
p1068
I15
sS'plan'
p1069
I26
sS'accepting'
p1070
I17
sS'apparatus'
p1071
I11
sS'sometimes'
p1072
I205
sS'cover'
p1073
I47
sS'lounge'
p1074
I14
sS'artistic'
p1075
I16
sS'dragged'
p1076
I17
sS'golf'
p1077
I34
sS'gold'
p1078
I74
sS'session'
p1079
I44
sS'entity'
p1080
I12
sS'defender'
p1081
I12
sS'occupation'
p1082
I23
sS'impact'
p1083
I74
sS'writes'
p1084
I26
sS'writer'
p1085
I37
sS'failed'
p1086
I89
sS'factor'
p1087
I63
sS'columns'
p1088
I16
sS'dependent'
p1089
I37
sS'liquid'
p1090
I12
sS'banned'
p1091
I16
sS'remedy'
p1092
I13
sS'preparing'
p1093
I26
sS'closely'
p1094
I55
sS'enemy'
p1095
I34
sS'progressive'
p1096
I17
sS'cry'
p1097
I16
sS'banking'
p1098
I21
sS'cease'
p1099
I10
sS'river'
p1100
I94
sS'approaching'
p1101
I17
sS'set'
p1102
I112
sS'sex'
p1103
I83
sS'see'
p1104
I1186
sS'migration'
p1105
I13
sS'sea'
p1106
I130
sS'aberdeen'
p1107
I14
sS'knees'
p1108
I26
sS'spirits'
p1109
I19
sS'movie'
p1110
I18
sS'currently'
p1111
I70
sS'knowing'
p1112
I47
sS'premises'
p1113
I39
sS'incident'
p1114
I37
sS'renewed'
p1115
I11
sS'interface'
p1116
I17
sS'dividend'
p1117
I15
sS'prospects'
p1118
I22
sS'last'
p1119
I28
sS'influential'
p1120
I18
sS'barely'
p1121
I23
sS'connection'
p1122
I35
sS'long-term'
p1123
I41
sS'let'
p1124
I253
sS'whole'
p1125
I91
sS'load'
p1126
I26
sS'majesty'
p1127
I11
sS'bell'
p1128
I16
sS'loan'
p1129
I38
sS'community'
p1130
I231
sS'agents'
p1131
I37
sS'scottish'
p1132
I98
sS'desktop'
p1133
I15
sS'belt'
p1134
I21
sS'devil'
p1135
I17
sS'publishing'
p1136
I22
sS'monthly'
p1137
I19
sS'acceptance'
p1138
I27
sS'convicted'
p1139
I12
sS'geoffrey'
p1140
I17
sS'firm'
p1141
I35
sS'champion'
p1142
I32
sS'counselling'
p1143
I13
sS'fire'
p1144
I133
sS'remark'
p1145
I12
sS'fund'
p1146
I55
sS'races'
p1147
I16
sS'awake'
p1148
I13
sS'representative'
p1149
I15
sS'systematic'
p1150
I17
sS'towns'
p1151
I41
sS'handling'
p1152
I14
sS'uncertain'
p1153
I20
sS'judicial'
p1154
I25
sS'straight'
p1155
I31
sS'expanded'
p1156
I14
sS'empirical'
p1157
I15
sS'receive'
p1158
I75
sS'pressed'
p1159
I29
sS'error'
p1160
I38
sS'robin'
p1161
I19
sS'owed'
p1162
I16
sS'pound'
p1163
I61
sS'hoping'
p1164
I35
sS'backing'
p1165
I12
sS'von'
p1166
I10
sS'owen'
p1167
I22
sS'binding'
p1168
I10
sS'beautifully'
p1169
I12
sS'34'
p1170
I15
sS'funny'
p1171
I45
sS'barnes'
p1172
I13
sS'shorter'
p1173
I18
sS'read'
p1174
I225
sS'virtually'
p1175
I44
sS'resulting'
p1176
I14
sS'knitting'
p1177
I10
sS'comprehensive'
p1178
I35
sS'derby'
p1179
I12
sS'levels'
p1180
I121
sS'necessity'
p1181
I18
sS'implement'
p1182
I15
sS'recent'
p1183
I158
sS'maker'
p1184
I10
sS'person'
p1185
I250
sS'as for'
p1186
I25
sS'ltd.'
p1187
I13
sS'kelly'
p1188
I21
sS'lads'
p1189
I15
sS'suffolk'
p1190
I12
sS'readers'
p1191
I47
sS'admission'
p1192
I23
sS'advertisements'
p1193
I10
sS'z / z'
p1194
I11
sS'signals'
p1195
I19
sS'eager'
p1196
I14
sS'parents'
p1197
I163
sS'location'
p1198
I40
sS'crying'
p1199
I14
sS'relevance'
p1200
I17
sS'input'
p1201
I32
sS'surprised'
p1202
I47
sS'australia'
p1203
I50
sS'victims'
p1204
I29
sS'emergency'
p1205
I40
sS'format'
p1206
I21
sS'couple'
p1207
I123
sS'wives'
p1208
I19
sS'suffering'
p1209
I13
sS'emergence'
p1210
I12
sS'projects'
p1211
I55
sS'formal'
p1212
I64
sS'imposed'
p1213
I34
sS'd'
p1214
I12
sS'consensus'
p1215
I18
sS'communications'
p1216
I35
sS'continue'
p1217
I118
sS'disorder'
p1218
I16
sS'suppliers'
p1219
I18
sS'privately'
p1220
I12
sS'methods'
p1221
I89
sS'senate'
p1222
I13
sS'spring'
p1223
I55
sS'b.'
p1224
I19
sS'palm'
p1225
I13
sS'sight'
p1226
I66
sS'curious'
p1227
I22
sS'pale'
p1228
I35
sS'and/or'
p1229
I19
sS'mummy'
p1230
I26
sS'transactions'
p1231
I21
sS'religion'
p1232
I44
sS'behave'
p1233
I17
sS'temple'
p1234
I14
sS'performed'
p1235
I39
sS'agreement'
p1236
I133
sS'nowhere'
p1237
I24
sS'br'
p1238
I13
sS'relating'
p1239
I37
sS'by'
p1240
I32
sS'wildlife'
p1241
I20
sS'anything'
p1242
I288
sS'wore'
p1243
I30
sS'stuart'
p1244
I21
sS'repair'
p1245
I15
sS'clinton'
p1246
I20
sS'into'
p1247
I1634
sS'integral'
p1248
I12
sS'ministers'
p1249
I68
sS'appropriate'
p1250
I113
sS'primarily'
p1251
I31
sS'criticisms'
p1252
I12
sS'spending'
p1253
I29
sS'bargaining'
p1254
I12
sS'specifically'
p1255
I38
sS'custom'
p1256
I15
sS'occupy'
p1257
I11
sS'suit'
p1258
I20
sS'opens'
p1259
I17
sS'considerably'
p1260
I29
sS'elsewhere'
p1261
I57
sS'inches'
p1262
I23
sS'jewish'
p1263
I22
sS'a bit'
p1264
I119
sS'relaxed'
p1265
I11
sS'link'
p1266
I13
sS'pacific'
p1267
I27
sS'line'
p1268
I221
sS'considerable'
p1269
I96
sS'up'
p1270
I83
sS'us'
p1271
I158
sS'maturity'
p1272
I14
sS'un'
p1273
I44
sS'customers'
p1274
I68
sS'mature'
p1275
I15
sS'alarm'
p1276
I21
sS'defined'
p1277
I54
sS'likewise'
p1278
I12
sS'influence'
p1279
I25
sS'chap'
p1280
I16
sS'diverse'
p1281
I13
sS'nationalism'
p1282
I10
sS'codes'
p1283
I13
sS'edwards'
p1284
I13
sS'occasional'
p1285
I26
sS'definitely'
p1286
I32
sS'actors'
p1287
I16
sS'revision'
p1288
I11
sS'elements'
p1289
I64
sS'titles'
p1290
I21
sS'prosecution'
p1291
I21
sS'meals'
p1292
I24
sS'ago'
p1293
I198
sS'lane'
p1294
I43
sS'land'
p1295
I13
sS'lancashire'
p1296
I17
sS'age'
p1297
I216
sS'holes'
p1298
I27
sS'walked'
p1299
I94
sS'summit'
p1300
I25
sS'gloucestershire'
p1301
I15
sS'walker'
p1302
I21
sS'fresh'
p1303
I68
sS'hello'
p1304
I38
sS'essay'
p1305
I16
sS'code'
p1306
I52
sS'partial'
p1307
I18
sS'sharply'
p1308
I25
sS'advisory'
p1309
I16
sS'results'
p1310
I147
sS'existing'
p1311
I94
sS'illustrated'
p1312
I26
sS'maastricht'
p1313
I12
sS'stops'
p1314
I12
sS'broader'
p1315
I14
sS'shrugged'
p1316
I24
sS'seemed'
p1317
I238
sS'turkish'
p1318
I14
sS'concerned'
p1319
I158
sS'hunger'
p1320
I11
sS'young'
p1321
I21
sS'send'
p1322
I80
sS'1980s'
p1323
I38
sS'sent'
p1324
I137
sS'retire'
p1325
I11
sS'garden'
p1326
I108
sS'continues'
p1327
I40
sS'continued'
p1328
I21
sS'minerals'
p1329
I11
sS'categories'
p1330
I34
sS'magic'
p1331
I15
sS'transmission'
p1332
I15
sS'marry'
p1333
I27
sS'fewer'
p1334
I31
sS'anxious'
p1335
I31
sS'threat'
p1336
I57
sS'race'
p1337
I74
sS'ulster'
p1338
I24
sS'recruitment'
p1339
I16
sS'imply'
p1340
I15
sS'video'
p1341
I65
sS'incidentally'
p1342
I11
sS'odd'
p1343
I45
sS'index'
p1344
I45
sS'directive'
p1345
I17
sS'expressed'
p1346
I69
sS'consistently'
p1347
I16
sS'indian'
p1348
I38
sS'twins'
p1349
I11
sS'firms'
p1350
I75
sS'bird'
p1351
I36
sS'thin'
p1352
I51
sS'led'
p1353
I154
sS'lee'
p1354
I36
sS'leg'
p1355
I53
sS'respectively'
p1356
I32
sS'gathered'
p1357
I26
sS'poverty'
p1358
I31
sS'licence'
p1359
I36
sS'consideration'
p1360
I54
sS'invented'
p1361
I12
sS'fifteen'
p1362
I54
sS'at first'
p1363
I41
sS'great'
p1364
I22
sS'engage'
p1365
I12
sS'technical'
p1366
I68
sS'involved'
p1367
I96
sS'u / u'
p1368
I21
sS'survey'
p1369
I79
sS'defeat'
p1370
I30
sS'opinion'
p1371
I75
sS'residents'
p1372
I35
sS'makes'
p1373
I166
sS'weekends'
p1374
I10
sS'involves'
p1375
I41
sS'tools'
p1376
I32
sS'causal'
p1377
I12
sS'standing'
p1378
I28
sS'confidence'
p1379
I70
sS'exciting'
p1380
I33
sS'certificate'
p1381
I29
sS'archbishop'
p1382
I16
sS'bush'
p1383
I29
sS'next'
p1384
I431
sS'eleven'
p1385
I38
sS'doubt'
p1386
I21
sS'pencil'
p1387
I12
sS'occurred'
p1388
I55
sS'carrying'
p1389
I56
sS'labelled'
p1390
I12
sS'rubbish'
p1391
I23
sS'baby'
p1392
I91
sS'charity'
p1393
I35
sS'customer'
p1394
I47
sS'balls'
p1395
I15
sS'animals'
p1396
I86
sS'this'
p1397
I4623
sS'challenge'
p1398
I16
sS'clients'
p1399
I49
sS'pour'
p1400
I11
sS'publications'
p1401
I20
sS'coffin'
p1402
I14
sS'slid'
p1403
I16
sS'bent'
p1404
I21
sS'process'
p1405
I11
sS'lock'
p1406
I15
sS'loch'
p1407
I13
sS'slim'
p1408
I12
sS'rode'
p1409
I11
sS'purposes'
p1410
I58
sS'pieces'
p1411
I56
sS'high'
p1412
I11
sS'slip'
p1413
I14
sS'reynolds'
p1414
I11
sS'educational'
p1415
I59
sS'predominantly'
p1416
I12
sS'delay'
p1417
I23
sS'animal'
p1418
I67
sS'comedy'
p1419
I14
sS'establishment'
p1420
I40
sS'blocks'
p1421
I21
sS'tied'
p1422
I25
sS'pigs'
p1423
I12
sS'ties'
p1424
I13
sS'solidarity'
p1425
I11
sS'efficiently'
p1426
I11
sS'so that'
p1427
I197
sS'counter'
p1428
I17
sS'redundant'
p1429
I12
sS'element'
p1430
I56
sS'allow'
p1431
I115
sS'volunteers'
p1432
I19
sS'counted'
p1433
I13
sS'boxing'
p1434
I12
sS'producer'
p1435
I18
sS'produces'
p1436
I25
sS'move'
p1437
I68
sS'doubtful'
p1438
I13
sS'produced'
p1439
I129
sS'perfect'
p1440
I56
sS'chosen'
p1441
I11
sS'lamp'
p1442
I14
sS'meantime'
p1443
I14
sS'degrees'
p1444
I31
sS'instruments'
p1445
I29
sS'designs'
p1446
I28
sS'outlined'
p1447
I20
sS'newman'
p1448
I10
sS'dock'
p1449
I12
sS'kiss'
p1450
I12
sS'cage'
p1451
I10
sS'realize'
p1452
I22
sS'presidential'
p1453
I21
sS'elite*'
p1454
I12
sS'intelligent'
p1455
I19
sS'traced'
p1456
I10
sS'sufficiently'
p1457
I26
sS'delightful'
p1458
I11
sS'betty'
p1459
I13
sS'truth'
p1460
I83
sS'shortage'
p1461
I15
sS'rising'
p1462
I11
sS'beneath'
p1463
I48
sS'glasses'
p1464
I25
sS'shower'
p1465
I15
sS'doing'
p1466
I279
sS'society'
p1467
I238
sS'books'
p1468
I131
sS'static'
p1469
I12
sS'thirteen'
p1470
I22
sS'agriculture'
p1471
I39
sS'witness'
p1472
I18
sS'matrix'
p1473
I14
sS"'"
p1474
I479
sS'dismissal'
p1475
I15
sS'shut'
p1476
I47
sS'interactions'
p1477
I11
sS'surely'
p1478
I63
sS'thrust'
p1479
I12
sS'defining'
p1480
I10
sS'mainland'
p1481
I11
sS'could'
p1482
I1683
sS'david'
p1483
I157
sS'length'
p1484
I72
sS'removing'
p1485
I14
sS'davis'
p1486
I14
sS'stimulate'
p1487
I10
sS'blown'
p1488
I12
sS'scene'
p1489
I68
sS'owned'
p1490
I36
sS'jesus'
p1491
I55
sS'owner'
p1492
I50
sS'have*'
p1493
I4735
sS'legislative'
p1494
I19
sS'm / m'
p1495
I46
sS'fascinating'
p1496
I17
sS'los'
p1497
I12
sS'festival'
p1498
I31
sS'system'
p1499
I447
sS'cats'
p1500
I16
sS'sergeant'
p1501
I26
sS'travelled'
p1502
I22
sS'painful'
p1503
I19
sS'interests'
p1504
I104
sS'enforcement'
p1505
I13
sS'stomach'
p1506
I30
sS'realized'
p1507
I31
sS'steel'
p1508
I37
sS'colleagues'
p1509
I56
sS'bother'
p1510
I22
sS'roberts'
p1511
I15
sS'reproduction'
p1512
I11
sS'steep'
p1513
I16
sS'collecting'
p1514
I15
sS'false'
p1515
I36
sS'partnership'
p1516
I35
sS'gently'
p1517
I40
sS'tonight'
p1518
I69
sS'gentle'
p1519
I29
sS'clearly'
p1520
I153
sS'viewed'
p1521
I21
sS'documents'
p1522
I44
sS'dishes'
p1523
I14
sS'studying'
p1524
I24
sS'mechanism'
p1525
I29
sS'linda'
p1526
I12
sS'korean'
p1527
I12
sS'juliet'
p1528
I12
sS'lily'
p1529
I14
sS'competence'
p1530
I15
sS'accuracy'
p1531
I17
sS'worldwide'
p1532
I10
sS'pete'
p1533
I13
sS'manor'
p1534
I13
sS'courtesy'
p1535
I11
sS'01'
p1536
I11
sS'device'
p1537
I29
sS'medal'
p1538
I11
sS'so-called'
p1539
I27
sS'prior to'
p1540
I31
sS'stronger'
p1541
I26
sS'face'
p1542
I67
sS'mechanical'
p1543
I20
sS'painting'
p1544
I38
sS'fact'
p1545
I374
sS'atmosphere'
p1546
I49
sS'bring'
p1547
I154
sS'evolutionary'
p1548
I11
sS'manchester'
p1549
I50
sS'lloyd'
p1550
I23
sS'bedroom'
p1551
I44
sS'rough'
p1552
I34
sS'decade'
p1553
I37
sS'principal'
p1554
I40
sS'pause'
p1555
I16
sS'jaw'
p1556
I11
sS'should'
p1557
I1112
sS'planted'
p1558
I14
sS'tape'
p1559
I46
sS'molecules'
p1560
I15
sS'riding'
p1561
I17
sS'hope'
p1562
I55
sS'meant'
p1563
I113
sS'insight'
p1564
I14
sS'handle'
p1565
I12
sS'listened'
p1566
I24
sS'bonds'
p1567
I19
sS'familiar'
p1568
I57
sS'lucky'
p1569
I41
sS'exchanges'
p1570
I11
sS'committees'
p1571
I27
sS'denmark'
p1572
I13
sS'comprising'
p1573
I11
sS'taxes'
p1574
I28
sS'reid'
p1575
I10
sS'stuff'
p1576
I69
sS'strengthened'
p1577
I10
sS'temporarily'
p1578
I13
sS'frame'
p1579
I32
sS'packet'
p1580
I12
sS'edition'
p1581
I25
sS'packed'
p1582
I18
sS'wire'
p1583
I22
sS'nuclear'
p1584
I81
sS'ends'
p1585
I15
sS'historians'
p1586
I16
sS'configuration'
p1587
I10
sS'staring'
p1588
I29
sS'restrictions'
p1589
I27
sS'invited'
p1590
I42
sS'drug'
p1591
I50
sS'etc'
p1592
I50
sS'doorway'
p1593
I17
sS'figures'
p1594
I112
sS'bristol'
p1595
I29
sS'adjusted'
p1596
I11
sS'cm'
p1597
I21
sS'conclude'
p1598
I15
sS'malcolm'
p1599
I18
sS'cd'
p1600
I10
sS'allocated'
p1601
I17
sS'acres'
p1602
I16
sS'midland'
p1603
I15
sS'underlying'
p1604
I22
sS'genetic'
p1605
I18
sS'drank'
p1606
I14
sS'in the light of'
p1607
I18
sS'richards'
p1608
I11
sS'waste'
p1609
I14
sS'c.'
p1610
I22
sS'in accordance with'
p1611
I20
sS'neighbour'
p1612
I18
sS'graphics'
p1613
I20
sS'spain'
p1614
I45
sS'laser'
p1615
I10
sS'surprisingly'
p1616
I26
sS'hardware'
p1617
I21
sS'optimistic'
p1618
I12
sS'sits'
p1619
I12
sS'of*'
p1620
I17
sS'highlighted'
p1621
I11
sS'matthew'
p1622
I26
sS'paula'
p1623
I11
sS'apart from'
p1624
I65
sS'ball'
p1625
I74
sS'drink'
p1626
I32
sS'upon'
p1627
I234
sS'v.'
p1628
I54
sS'dust'
p1629
I26
sS'expand'
p1630
I18
sS'audit'
p1631
I22
sS'off'
p1632
I214
sS'colour'
p1633
I111
sS'patterns'
p1634
I58
sS'command'
p1635
I34
sS'drawing'
p1636
I25
sS'negligence'
p1637
I13
sS'flesh'
p1638
I25
sS'moments'
p1639
I32
sS'going*'
p1640
I658
sS'rooms'
p1641
I55
sS'paul'
p1642
I114
sS'generous'
p1643
I23
sS'wee'
p1644
I12
sS'residential'
p1645
I29
sS'arrest'
p1646
I16
sS'combine'
p1647
I16
sS'wet'
p1648
I36
sS'practise'
p1649
I12
sS'increased'
p1650
I57
sS'government'
p1651
I622
sS'checking'
p1652
I16
sS'chancellor'
p1653
I37
sS'increases'
p1654
I20
sS'five'
p1655
I407
sS'desk'
p1656
I45
sS'belgium'
p1657
I14
sS'les*'
p1658
I13
sS'mhm'
p1659
I75
sS'emma'
p1660
I15
sS'chairs'
p1661
I20
sS'garage'
p1662
I21
sS'become'
p1663
I304
sS'replacement'
p1664
I26
sS'amendment'
p1665
I18
sS'gaining'
p1666
I12
sS'sunderland'
p1667
I14
sS'choosing'
p1668
I17
sS'recognition'
p1669
I58
sS'literally'
p1670
I20
sS'avoid'
p1671
I80
sS'does'
p1672
I687
sS'passion'
p1673
I23
sS'biology'
p1674
I11
sS'blowing'
p1675
I10
sS'schedule'
p1676
I24
sS'pressure'
p1677
I119
sS'accompanied'
p1678
I33
sS'r'
p1679
I12
sS'loans'
p1680
I27
sS'counties'
p1681
I16
sS'stage'
p1682
I162
sS'gained'
p1683
I37
sS'sister'
p1684
I75
sS'lifestyle'
p1685
I11
sS'asks'
p1686
I20
sS'angeles'
p1687
I11
sS'holdings'
p1688
I12
sS'seeds'
p1689
I16
sS'insufficient'
p1690
I13
sS'swimming'
p1691
I18
sS'alliance'
p1692
I31
sS'letters'
p1693
I79
sS'coverage'
p1694
I22
sS'catherine'
p1695
I16
sS'commitment'
p1696
I57
sS'referendum'
p1697
I14
sS'assess'
p1698
I27
sS'joyce'
p1699
I13
sS'roads'
p1700
I39
sS'mere'
p1701
I34
sS'housing'
p1702
I28
sS'spots'
p1703
I12
sS'popularity'
p1704
I14
sS'frustration'
p1705
I14
sS'specimens'
p1706
I15
sS'naturally'
p1707
I43
sS'function'
p1708
I78
sS'fiscal'
p1709
I13
sS'constantly'
p1710
I31
sS'delivery'
p1711
I36
sS'construction'
p1712
I63
sS'valuation'
p1713
I11
sS'basin'
p1714
I12
sS'count'
p1715
I21
sS'evident'
p1716
I26
sS'official'
p1717
I21
sS'smooth'
p1718
I28
sS'excitement'
p1719
I26
sS'placed'
p1720
I86
sS'frequency'
p1721
I28
sS'distribution'
p1722
I63
sS'bearing'
p1723
I22
sS'irish'
p1724
I59
sS'rightly'
p1725
I15
sS'nurses'
p1726
I25
sS'recognize'
p1727
I21
sS'contribute'
p1728
I27
sS'inn'
p1729
I15
sS'inc'
p1730
I57
sS'compared'
p1731
I88
sS'variety'
p1732
I87
sS'trials'
p1733
I21
sS'forests'
p1734
I20
sS'details'
p1735
I117
sS'repeat'
p1736
I27
sS'monday'
p1737
I53
sS'chance'
p1738
I130
sS'exposure'
p1739
I23
sS'ghost'
p1740
I14
sS'mozart'
p1741
I12
sS'lasted'
p1742
I14
sS'rule'
p1743
I12
sS'lift'
p1744
I19
sS'status'
p1745
I88
sS'pension'
p1746
I45
sS'searched'
p1747
I11
sS'rural'
p1748
I63
sS'gardens'
p1749
I37
sS'magnetic'
p1750
I15
sS'doubts'
p1751
I20
sS'desirable'
p1752
I21
sS'nursery'
p1753
I18
sS'controversial'
p1754
I21
sS'oldest'
p1755
I15
sS'saved'
p1756
I32
sS'relationships'
p1757
I60
sS'votes'
p1758
I31
sS'neighbours'
p1759
I31
sS'edward'
p1760
I69
sS'voted'
p1761
I23
sS'worth'
p1762
I21
sS'1958'
p1763
I11
sS'blanket'
p1764
I11
sS'chapel'
p1765
I20
sS'tickets'
p1766
I26
sS'on behalf of'
p1767
I27
sS'announced'
p1768
I105
sS'triumph'
p1769
I17
sS'economies'
p1770
I19
sS'just about'
p1771
I14
sS'machines'
p1772
I48
sS'established'
p1773
I20
sS'settlement'
p1774
I46
sS'deliberate'
p1775
I13
sS'above'
p1776
I27
sS'neat'
p1777
I17
sS'officially'
p1778
I18
sS'consisting'
p1779
I13
sS'told'
p1780
I372
sS'simultaneously'
p1781
I18
sS'protection'
p1782
I80
sS'pursuit'
p1783
I13
sS'celebration'
p1784
I12
sS'obtained'
p1785
I63
sS'daughter'
p1786
I94
sS'items'
p1787
I67
sS'study'
p1788
I30
sS'smoke'
p1789
I12
sS'stressed'
p1790
I22
sS'diameter'
p1791
I13
sS'secure'
p1792
I18
sS'angrily'
p1793
I11
sS'highly'
p1794
I91
sS'regulatory'
p1795
I12
sS'opportunities'
p1796
I58
sS'as it were'
p1797
I10
sS'glance'
p1798
I23
sS'total'
p1799
I51
sS'sarah'
p1800
I35
sS'plot'
p1801
I18
sS'palestinian'
p1802
I10
sS'coins'
p1803
I14
sS'negative'
p1804
I45
sS'seriously'
p1805
I57
sS'lorry'
p1806
I13
sS'separated'
p1807
I21
sS'award'
p1808
I148
sS'aware'
p1809
I108
sS'championships'
p1810
I15
sS'yard'
p1811
I33
sS'1991'
p1812
I128
sS'1990'
p1813
I150
sS'1993'
p1814
I57
sS'1992'
p1815
I102
sS'word'
p1816
I193
sS'1994'
p1817
I16
sS'work'
p1818
I260
sS'refusing'
p1819
I14
sS'worn'
p1820
I19
sS'theories'
p1821
I37
sS'era'
p1822
I21
sS'elbow'
p1823
I11
sS'erm'
p1824
I627
sS'indicated'
p1825
I44
sS'cited'
p1826
I14
sS'flung'
p1827
I11
sS'india'
p1828
I47
sS'indicates'
p1829
I23
sS'chapman'
p1830
I11
sS'recovery'
p1831
I38
sS'provide'
p1832
I223
sS'mouse'
p1833
I18
sS'boats'
p1834
I20
sS'ordinary'
p1835
I68
sS'beach'
p1836
I38
sS'fever'
p1837
I11
sS'lad'
p1838
I20
sS'ladder'
p1839
I13
sS'after'
p1840
I233
sS'damaged'
p1841
I20
sS'customs'
p1842
I23
sS'lay'
p1843
I92
sS'midlands'
p1844
I17
sS'law'
p1845
I270
sS'lap'
p1846
I13
sS'appreciate'
p1847
I26
sS'greek'
p1848
I29
sS'green'
p1849
I17
sS'ambulance'
p1850
I17
sS'fan'
p1851
I15
sS'order'
p1852
I18
sS'office'
p1853
I257
sS'consent'
p1854
I32
sS'satisfied'
p1855
I31
sS'innovative'
p1856
I10
sS'japan'
p1857
I65
sS'mayor'
p1858
I21
sS'somewhere'
p1859
I70
sS'christie'
p1860
I12
sS'production'
p1861
I156
sS'split'
p1862
I25
sS'then'
p1863
I12
sS'them'
p1864
I1733
sS'affected'
p1865
I54
sS'safe'
p1866
I66
sS'break'
p1867
I36
sS'band'
p1868
I67
sS'they'
p1869
I4332
sS'bank'
p1870
I168
sS'bread'
p1871
I38
sS'oxygen'
p1872
I19
sS'reasonably'
p1873
I31
sS'classified'
p1874
I10
sS'rocks'
p1875
I29
sS'reasonable'
p1876
I61
sS'bells'
p1877
I10
sS'lifted'
p1878
I38
sS'schemes'
p1879
I51
sS'councils'
p1880
I35
sS'crimes'
p1881
I18
sS'network'
p1882
I72
sS'cameras'
p1883
I12
sS'diesel'
p1884
I13
sS'forty'
p1885
I66
sS'vessels'
p1886
I15
sS'daniel'
p1887
I15
sS'medicine'
p1888
I28
sS'forth'
p1889
I13
sS'barrier'
p1890
I16
sS'standard'
p1891
I56
sS'campaigns'
p1892
I14
sS'appointments'
p1893
I15
sS'disputes'
p1894
I14
sS'created'
p1895
I85
sS'creates'
p1896
I14
sS'canterbury'
p1897
I12
sS'incorporated'
p1898
I19
sS'another'
p1899
I581
sS'tel'
p1900
I12
sS'thick'
p1901
I46
sS'electronic'
p1902
I34
sS'illustrate'
p1903
I16
sS'approximately'
p1904
I28
sS'rates'
p1905
I115
sS'observations'
p1906
I22
sS'john'
p1907
I328
sS'dogs'
p1908
I44
sS'happily'
p1909
I18
sS'albert'
p1910
I22
sS'rejected'
p1911
I39
sS'wasted'
p1912
I10
sS'mercy'
p1913
I11
sS'target'
p1914
I65
sS'scenes'
p1915
I21
sS'guilt'
p1916
I18
sS'historical'
p1917
I56
sS'powers'
p1918
I68
sS'minus'
p1919
I13
sS'manner'
p1920
I61
sS'contents'
p1921
I30
sS'forced'
p1922
I74
sS'strength'
p1923
I72
sS'genuine'
p1924
I33
sS'convenient'
p1925
I20
sS'latter'
p1926
I78
sS'subjects'
p1927
I77
sS'forces'
p1928
I114
sS'completed'
p1929
I55
sS'circles'
p1930
I17
sS'acquire'
p1931
I20
sS'bruce'
p1932
I17
sS'what'
p1933
I2493
sS'exercised'
p1934
I15
sS'extending'
p1935
I16
sS'involving'
p1936
I43
sS'germany'
p1937
I106
sS'phase'
p1938
I46
sS'assessed'
p1939
I22
sS'germans'
p1940
I25
sS'calculated'
p1941
I24
sS'investments'
p1942
I15
sS'leaflet'
p1943
I12
sS'accounted'
p1944
I14
sS'aunt'
p1945
I31
sS'deeply'
p1946
I37
sS'voting'
p1947
I15
sS'responded'
p1948
I22
sS'fitted'
p1949
I33
sS'reserve'
p1950
I14
sS'd.'
p1951
I15
sS'lewis'
p1952
I37
sS'brief'
p1953
I47
sS'subtle'
p1954
I18
sS'enjoyed'
p1955
I51
sS'just'
p1956
I19
sS'implementation'
p1957
I28
sS'guidance'
p1958
I32
sS'pursuing'
p1959
I10
sS'adequate'
p1960
I36
sS'personality'
p1961
I29
sS'do'
p1962
I2802
sS'dc'
p1963
I15
sS'preferred'
p1964
I11
sS'c / c'
p1965
I138
sS'nasty'
p1966
I18
sS'du'
p1967
I12
sS'dr'
p1968
I112
sS'runs'
p1969
I13
sS'covering'
p1970
I29
sS'exchanged'
p1971
I10
sS'implication'
p1972
I13
sS'squadron'
p1973
I13
sS'explanations'
p1974
I17
sS'steam'
p1975
I28
sS'secretary'
p1976
I154
sS'observer'
p1977
I17
sS'w.'
p1978
I16
sS'observed'
p1979
I46
sS'depends'
p1980
I50
sS'cattle'
p1981
I26
sS'discussions'
p1982
I31
sS'miserable'
p1983
I12
sS'techniques'
p1984
I59
sS'draws'
p1985
I11
sS'away'
p1986
I371
sS'gentleman'
p1987
I52
sS'sweden'
p1988
I17
sS'because*'
p1989
I852
sS'unable'
p1990
I64
sS'cooperation'
p1991
I12
sS'drawn'
p1992
I75
sS'we'
p1993
I3578
sS'terms'
p1994
I165
sS'in support of'
p1995
I11
sS'handful'
p1996
I14
sS'travellers'
p1997
I16
sS'packages'
p1998
I15
sS'kitchen'
p1999
I82
sS'received'
p2000
I130
sS'climate'
p2001
I28
sS'cow'
p2002
I14
sS'ill'
p2003
I46
sS'receives'
p2004
I13
sS'receiver'
p2005
I16
sS'requests'
p2006
I13
sS'old-fashioned'
p2007
I12
sS'negotiation'
p2008
I12
sS'tone'
p2009
I42
sS'royal'
p2010
I147
sS'e / e'
p2011
I67
sS'tony'
p2012
I50
sS'telecommunications'
p2013
I13
sS'speak'
p2014
I94
sS'strong'
p2015
I160
sS'engines'
p2016
I19
sS'condemned'
p2017
I14
sS'flexible'
p2018
I24
sS'warmth'
p2019
I20
sS'duties'
p2020
I39
sS'families'
p2021
I83
sS'easy'
p2022
I143
sS'attacked'
p2023
I29
sS'concerning'
p2024
I31
sS'coherent'
p2025
I11
sS'applied'
p2026
I66
sS'east'
p2027
I48
sS'ahead'
p2028
I63
sS'publicly'
p2029
I16
sS'air'
p2030
I189
sS'aim'
p2031
I14
sS'applies'
p2032
I28
sS'aid'
p2033
I78
sS'property'
p2034
I125
sS'launched'
p2035
I45
sS'mistake'
p2036
I37
sS'tissue'
p2037
I21
sS'comparative'
p2038
I14
sS'sort of'
p2039
I59
sS'confirmed'
p2040
I48
sS'descent'
p2041
I11
sS'perform'
p2042
I32
sS'apparently'
p2043
I78
sS'varies'
p2044
I13
sS'plates'
p2045
I23
sS'wheel'
p2046
I26
sS'independent'
p2047
I98
sS'raid'
p2048
I13
sS'used (to)'
p2049
I156
sS'hang'
p2050
I31
sS'evil'
p2051
I13
sS'hand'
p2052
I344
sS'pubs'
p2053
I13
sS'blamed'
p2054
I14
sS'centred'
p2055
I13
sS'kept'
p2056
I143
sS'whereby'
p2057
I20
sS'1979'
p2058
I54
sS'1978'
p2059
I37
sS'1977'
p2060
I37
sS'1976'
p2061
I36
sS'1975'
p2062
I34
sS'1974'
p2063
I33
sS'1973'
p2064
I29
sS'1972'
p2065
I27
sS'1971'
p2066
I26
sS'1970'
p2067
I26
sS'client'
p2068
I61
sS'centres'
p2069
I52
sS'the'
p2070
I61847
sS'camps'
p2071
I11
sS'musical'
p2072
I29
sS'traditions'
p2073
I16
sS'quoted'
p2074
I24
sS'gods'
p2075
I14
sS'newton'
p2076
I15
sS'43'
p2077
I12
sS'gravity'
p2078
I12
sS'thanks'
p2079
I62
sS'victim'
p2080
I39
sS'adding'
p2081
I32
sS'hills'
p2082
I31
sS'photographer'
p2083
I11
sS'passive'
p2084
I14
sS'wright'
p2085
I20
sS'shout'
p2086
I10
sS'spread'
p2087
I17
sS'transformed'
p2088
I16
sS'board'
p2089
I134
sS'marginal'
p2090
I22
sS'arab'
p2091
I22
sS'boxes'
p2092
I27
sS'retreat'
p2093
I10
sS'disadvantage'
p2094
I12
sS'soap'
p2095
I13
sS'securities'
p2096
I19
sS'night'
p2097
I365
sS'security'
p2098
I138
sS'born'
p2099
I82
sS'bore'
p2100
I12
sS'purple'
p2101
I11
sS'pavement'
p2102
I14
sS'comments'
p2103
I41
sS'asking'
p2104
I63
sS'denied'
p2105
I37
sS'beating'
p2106
I15
sS'participation'
p2107
I27
sS'marketing'
p2108
I49
sS'illustration'
p2109
I12
sS'graduates'
p2110
I11
sS'plc'
p2111
I16
sS'architectural'
p2112
I12
sS'post'
p2113
I88
sS'properties'
p2114
I41
sS'trophy'
p2115
I13
sS'more than*'
p2116
I148
sS'theirs'
p2117
I10
sS'newspapers'
p2118
I35
sS'months'
p2119
I248
sS'horizon'
p2120
I14
sS'considerations'
p2121
I24
sS'dilemma'
p2122
I11
sS'pays'
p2123
I15
sS'prisoners'
p2124
I30
sS'profession'
p2125
I31
sS'bound'
p2126
I47
sS'at present'
p2127
I29
sS'formidable'
p2128
I11
sS'balanced'
p2129
I11
sS'strangely'
p2130
I10
sS'legislation'
p2131
I70
sS'fight'
p2132
I29
sS'accordingly'
p2133
I23
sS'clinical'
p2134
I30
sS'way'
p2135
I958
sS'researchers'
p2136
I25
sS'was'
p2137
I9236
sS'war'
p2138
I279
sS'lowest'
p2139
I17
sS'becoming'
p2140
I71
sS'mysterious'
p2141
I13
sS'needles'
p2142
I11
sS'elderly'
p2143
I50
sS'true'
p2144
I181
sS'absent'
p2145
I15
sS'k / k'
p2146
I25
sS'responding'
p2147
I11
sS'maximum'
p2148
I16
sS'crystal'
p2149
I15
sS'emotional'
p2150
I36
sS'promises'
p2151
I10
sS'moore'
p2152
I19
sS'computing'
p2153
I19
sS'nicholson'
p2154
I11
sS'abstract'
p2155
I19
sS'evidence'
p2156
I215
sS'guessed'
p2157
I12
sS'expertise'
p2158
I26
sS'promised'
p2159
I39
sS'prayer'
p2160
I21
sS'physical'
p2161
I95
sS'dying'
p2162
I11
sS'stake'
p2163
I19
sS'reality'
p2164
I65
sS'interested'
p2165
I88
sS'holding'
p2166
I72
sS'test'
p2167
I28
sS'unwilling'
p2168
I10
sS'scored'
p2169
I28
sS'brothers'
p2170
I36
sS"o'clock"
p2171
I47
sS'welcome'
p2172
I10
sS'convincing'
p2173
I12
sS'polite'
p2174
I12
sS"let's"
p2175
I84
sS'scores'
p2176
I17
sS'interval'
p2177
I14
sS'modules'
p2178
I27
sS'together'
p2179
I308
sS'beds'
p2180
I21
sS'w / w'
p2181
I16
sS'reception'
p2182
I24
sS'songs'
p2183
I29
sS'concept'
p2184
I64
sS'0'
p2185
I26
sS'switched'
p2186
I20
sS'dance'
p2187
I14
sS'global'
p2188
I36
sS'grateful'
p2189
I27
sS'battle'
p2190
I63
sS'layers'
p2191
I14
sS'certainly'
p2192
I186
sS'mounted'
p2193
I17
sS'zone'
p2194
I26
sS'graph'
p2195
I10
sS'fog'
p2196
I10
sS'permanently'
p2197
I12
sS'rhythm'
p2198
I15
sS'terror'
p2199
I15
sS'brown'
p2200
I38
sS'charles'
p2201
I91
sS'seemingly'
p2202
I12
sS'liability'
p2203
I39
sS'anonymous'
p2204
I12
sS'entries'
p2205
I18
sS'trouble'
p2206
I89
sS'perceived'
p2207
I17
sS'presented'
p2208
I80
sS'turns'
p2209
I32
sS'gun'
p2210
I35
sS'p'
p2211
I10
sS'guy'
p2212
I18
sS'upper'
p2213
I54
sS'brave'
p2214
I17
sS'discover'
p2215
I33
sS'cost'
p2216
I57
sS'appear'
p2217
I109
sS'assistance'
p2218
I43
sS'shares'
p2219
I79
sS'uniform'
p2220
I11
sS'shared'
p2221
I15
sS'appeal'
p2222
I19
sS'satisfy'
p2223
I20
sS'supporting'
p2224
I11
sS'explosion'
p2225
I17
sS'confirmation'
p2226
I12
sS'genes'
p2227
I21
sS'cos*'
p2228
I163
sS'teacher'
p2229
I87
sS'change'
p2230
I119
sS'sending'
p2231
I26
sS'flames'
p2232
I13
sS'trial'
p2233
I65
sS'usually'
p2234
I191
sS'churchill'
p2235
I14
sS'retired'
p2236
I11
sS'extra'
p2237
I92
sS'marked'
p2238
I21
sS'sincerely'
p2239
I11
sS'according to'
p2240
I157
sS'rarely'
p2241
I42
sS'market'
p2242
I11
sS'prove'
p2243
I57
sS'angela'
p2244
I11
sS'territories'
p2245
I14
sS'live'
p2246
I29
sS'entrance'
p2247
I31
sS'club'
p2248
I164
sS'envelope'
p2249
I14
sS'clue'
p2250
I11
sS'commissioned'
p2251
I14
sS'hesitated'
p2252
I15
sS'organizations'
p2253
I30
sS'ca~'
p2254
I318
sS'car'
p2255
I278
sS'cap'
p2256
I20
sS'cat'
p2257
I39
sS'in part'
p2258
I21
sS'incidents'
p2259
I15
sS'can'
p2260
I2354
sS'keynes'
p2261
I10
sS'cab'
p2262
I15
sS'heart'
p2263
I137
sS'dedicated'
p2264
I12
sS'december'
p2265
I94
sS'chip'
p2266
I18
sS'paused'
p2267
I25
sS'heard'
p2268
I202
sS'chin'
p2269
I16
sS'exclude'
p2270
I13
sS'clothing'
p2271
I21
sS'occur'
p2272
I56
sS'productive'
p2273
I14
sS'fortunately'
p2274
I16
sS'discussion'
p2275
I85
sS'means'
p2276
I96
sS'write'
p2277
I109
sS'criterion'
p2278
I13
sS'dominance'
p2279
I11
sS'economy'
p2280
I105
sS'armies'
p2281
I10
sS'product'
p2282
I111
sS'wonderful'
p2283
I49
sS'southern'
p2284
I55
sS'motorway'
p2285
I12
sS'produce'
p2286
I110
sS'commit'
p2287
I14
sS'heroes'
p2288
I11
sS'lifting'
p2289
I10
sS'as well'
p2290
I113
sS'remember'
p2291
I191
sS'whenever'
p2292
I32
sS'futures'
p2293
I14
sS'explicit'
p2294
I19
sS'typical'
p2295
I49
sS'no.'
p2296
I33
sS'serving'
p2297
I25
sS'correlation'
p2298
I14
sS'indeed'
p2299
I188
sS'displayed'
p2300
I25
sS'brain'
p2301
I47
sS'statistical'
p2302
I21
sS'cold'
p2303
I23
sS'still'
p2304
I29
sS'birds'
p2305
I57
sS'acknowledge'
p2306
I15
sS'forms'
p2307
I18
sS'window'
p2308
I106
sS'ipswich'
p2309
I12
sS'norway'
p2310
I15
sS'bombs'
p2311
I12
sS'correspondence'
p2312
I15
sS'halt'
p2313
I12
sS'introduce'
p2314
I35
sS'1954'
p2315
I10
sS'1957'
p2316
I12
sS'1956'
p2317
I11
sS'1951'
p2318
I10
sS'1950'
p2319
I13
sS'1953'
p2320
I10
sS'half'
p2321
I16
sS'not'
p2322
I4626
sS'now'
p2323
I1382
sS'provision'
p2324
I87
sS'discuss'
p2325
I56
sS'nor'
p2326
I124
sS'servant'
p2327
I18
sS'james'
p2328
I102
sS'drop'
p2329
I22
sS'redundancy'
p2330
I11
sS'entirely'
p2331
I69
sS'el'
p2332
I12
sS'domain'
p2333
I17
sS'significantly'
p2334
I42
sS'challenged'
p2335
I16
sS'ed'
p2336
I11
sS'eg'
p2337
I18
sS'yeah'
p2338
I834
sS'ec'
p2339
I67
sS'challenges'
p2340
I11
sS'fires'
p2341
I12
sS'year'
p2342
I737
sS'happen'
p2343
I88
sS'avoided'
p2344
I22
sS'er'
p2345
I896
sS'album'
p2346
I22
sS'shown'
p2347
I150
sS'opened'
p2348
I115
sS'space'
p2349
I125
sS'furthermore'
p2350
I29
sS'increase'
p2351
I73
sS'rational'
p2352
I23
sS'receiving'
p2353
I29
sS'shows'
p2354
I18
sS'inevitably'
p2355
I31
sS'e.'
p2356
I18
sS'cars'
p2357
I75
sS'advantages'
p2358
I29
sS'carl'
p2359
I11
sS'obligation'
p2360
I22
sS'marine'
p2361
I20
sS'inevitable'
p2362
I28
sS'card'
p2363
I57
sS'care'
p2364
I51
sS'transition'
p2365
I23
sS'british'
p2366
I357
sS'honest'
p2367
I30
sS'invitation'
p2368
I19
sS'promotion'
p2369
I33
sS'blind'
p2370
I26
sS'romania'
p2371
I12
sS'flying'
p2372
I19
sS'striking'
p2373
I17
sS'omitted'
p2374
I11
sS'variables'
p2375
I22
sS'yourself'
p2376
I107
sS'directly'
p2377
I88
sS'impossible'
p2378
I71
sS'message'
p2379
I70
sS'drove'
p2380
I37
sS'tomorrow'
p2381
I93
sS"'em"
p2382
I16
sS'size'
p2383
I127
sS'sheep'
p2384
I30
sS'sheer'
p2385
I21
sS'sheet'
p2386
I42
sS'silent'
p2387
I38
sS'caught'
p2388
I86
sS'breed'
p2389
I12
sS'households'
p2390
I18
sS'tragic'
p2391
I12
sS'friend'
p2392
I164
sS'mostly'
p2393
I39
sS'that'
p2394
I52
sS'taxation'
p2395
I25
sS'cornwall'
p2396
I13
sS'resulted'
p2397
I29
sS'flowers'
p2398
I54
sS'appreciated'
p2399
I15
sS'professionals'
p2400
I23
sS'television'
p2401
I100
sS'transferred'
p2402
I31
sS'investors'
p2403
I27
sS'remained'
p2404
I91
sS'craig'
p2405
I13
sS'premier'
p2406
I17
sS"d' [=do]"
p2407
I16
sS'trevor'
p2408
I12
sS'anger'
p2409
I33
sS'appraisal'
p2410
I11
sS'breakfast'
p2411
I44
sS'recover'
p2412
I20
sS'offering'
p2413
I42
sS'manufacturers'
p2414
I28
sS'equipment'
p2415
I89
sS'mr.'
p2416
I148
sS'objective'
p2417
I17
sS'begin'
p2418
I75
sS'price'
p2419
I170
sS'neatly'
p2420
I13
sS'importantly'
p2421
I13
sS'successive'
p2422
I19
sS'america'
p2423
I103
sS'forever'
p2424
I18
sS'bishops'
p2425
I12
sS'dream'
p2426
I38
sS'attempting'
p2427
I24
sS'implications'
p2428
I45
sS'mrs'
p2429
I198
sS'professional'
p2430
I105
sS'typically'
p2431
I21
sS'subject to'
p2432
I51
sS'and so on'
p2433
I49
sS'german'
p2434
I16
sS'fifty'
p2435
I86
sS'discovered'
p2436
I64
sS'fifth'
p2437
I35
sS'geography'
p2438
I16
sS'ratio'
p2439
I29
sS'title'
p2440
I97
sS'proportion'
p2441
I63
sS'only'
p2442
I231
sS'essence'
p2443
I18
sS'thompson'
p2444
I14
sS'samuel'
p2445
I13
sS'truly'
p2446
I32
sS'honours'
p2447
I14
sS'celebrate'
p2448
I14
sS'leather'
p2449
I26
sS'seldom'
p2450
I15
sS'husband'
p2451
I112
sS'concert'
p2452
I19
sS'burst'
p2453
I19
sS'physically'
p2454
I20
sS'elected'
p2455
I45
sS'namely'
p2456
I22
sS'actively'
p2457
I15
sS'asleep'
p2458
I25
sS'sport'
p2459
I45
sS'concern'
p2460
I96
sS'israeli'
p2461
I15
sS'lexical'
p2462
I11
sS'colours'
p2463
I45
sS'3'
p2464
I250
sS'between'
p2465
I903
sS'justified'
p2466
I20
sS'notice'
p2467
I36
sS'blame'
p2468
I23
sS'article'
p2469
I68
sS'daddy'
p2470
I22
sS'installation'
p2471
I13
sS'propaganda'
p2472
I12
sS'enabling'
p2473
I14
sS'wheels'
p2474
I16
sS'comes'
p2475
I160
sS'nearby'
p2476
I14
sS'150'
p2477
I18
sS'jeans'
p2478
I13
sS'exploit'
p2479
I12
sS'learning'
p2480
I38
sS'wound*'
p2481
I10
sS'moreover'
p2482
I43
sS'muttered'
p2483
I16
sS'oliver'
p2484
I23
sS'informed'
p2485
I33
sS'territorial'
p2486
I12
sS'tropical'
p2487
I18
sS'dangers'
p2488
I16
sS'linguistic'
p2489
I25
sS'wounds'
p2490
I10
sS'observers'
p2491
I14
sS'external'
p2492
I49
sS'suspected'
p2493
I16
sS'developing'
p2494
I31
sS'these'
p2495
I1254
sS'trick'
p2496
I14
sS'joke'
p2497
I21
sS'mining'
p2498
I15
sS'orientation'
p2499
I11
sS'soil'
p2500
I41
sS'commander'
p2501
I20
sS'bias'
p2502
I14
sS'heels'
p2503
I12
sS'return'
p2504
I78
sS'worry'
p2505
I47
sS'alright*'
p2506
I40
sS'develop'
p2507
I86
sS'media'
p2508
I80
sS'gentlemen'
p2509
I15
sS'ya'
p2510
I14
sS'inquiry'
p2511
I35
sS'document'
p2512
I51
sS'noble'
p2513
I13
sS'finish'
p2514
I16
sS'centuries'
p2515
I36
sS'enjoyment'
p2516
I10
sS'fruit'
p2517
I41
sS'anticipated'
p2518
I11
sS'tradition'
p2519
I51
sS'mentally'
p2520
I20
sS'complained'
p2521
I19
sS'charges'
p2522
I60
sS'constitutional'
p2523
I31
sS'severe'
p2524
I46
sS'breeze'
p2525
I14
sS'laboratories'
p2526
I10
sS'charged'
p2527
I46
sS'taxi'
p2528
I19
sS'am*'
p2529
I10
sS'valuable'
p2530
I39
sS'touch'
p2531
I26
sS'speed'
p2532
I70
sS'death'
p2533
I205
sS'thinking'
p2534
I43
sS'improvement'
p2535
I42
sS'verse'
p2536
I14
sS'treatment'
p2537
I122
sS'republic'
p2538
I43
sS'struck'
p2539
I42
sS'real'
p2540
I227
sS'spectacular'
p2541
I19
sS'rules'
p2542
I105
sS'offence'
p2543
I37
sS'specimen'
p2544
I11
sS'early'
p2545
I76
sS'listening'
p2546
I34
sS'using'
p2547
I247
sS'execution'
p2548
I14
sS'lady'
p2549
I97
sS'rear'
p2550
I11
sS'ruled'
p2551
I24
sS'fortune'
p2552
I21
sS'pounds'
p2553
I123
sS'collective'
p2554
I24
sS'miracle'
p2555
I11
sS'annually'
p2556
I11
sS'benefit'
p2557
I30
sS'fully'
p2558
I89
sS'output'
p2559
I58
sS'no one*'
p2560
I81
sS'twelve'
p2561
I66
sS'verbal'
p2562
I15
sS'exposed'
p2563
I20
sS'eddie'
p2564
I12
sS'rage'
p2565
I12
sS'duration'
p2566
I18
sS'intend'
p2567
I21
sS'questionnaire'
p2568
I12
sS'recorded'
p2569
I57
sS'deficit'
p2570
I23
sS'willie'
p2571
I13
sS'assembly'
p2572
I54
sS'racism'
p2573
I11
sS'business'
p2574
I358
sS'sixth'
p2575
I25
sS'equivalent'
p2576
I19
sS'1936'
p2577
I10
sS'sixty'
p2578
I43
sS'1939'
p2579
I13
sS'francis'
p2580
I25
sS'throw'
p2581
I31
sS'brighton'
p2582
I15
sS'comparison'
p2583
I33
sS'central'
p2584
I193
sS'ideology'
p2585
I21
sS'journey'
p2586
I48
sS'greatly'
p2587
I33
sS'intent'
p2588
I12
sS'processor'
p2589
I15
sS'outlook'
p2590
I12
sS'protests'
p2591
I12
sS'inclusion'
p2592
I12
sS'rolling'
p2593
I10
sS'involvement'
p2594
I42
sS'even though'
p2595
I59
sS'operator'
p2596
I15
sS'nowadays'
p2597
I16
sS'your'
p2598
I1383
sS'intervention'
p2599
I32
sS'log'
p2600
I11
sS'prepare'
p2601
I30
sS'area'
p2602
I351
sS'assumed'
p2603
I42
sS'start'
p2604
I85
sS'poured'
p2605
I18
sS'low'
p2606
I158
sS'stars'
p2607
I39
sS'somerset'
p2608
I13
sS'assumes'
p2609
I10
sS'jones'
p2610
I46
sS'delayed'
p2611
I14
sS'two-thirds'
p2612
I12
sS'cottage'
p2613
I32
sS'trying'
p2614
I185
sS'hire'
p2615
I10
sS'fraud'
p2616
I18
sS'circulation'
p2617
I15
sS'beliefs'
p2618
I24
sS'600'
p2619
I11
sS'describe'
p2620
I43
sS'moved'
p2621
I146
sS'sales'
p2622
I104
sS'a / a'
p2623
I266
sS'czechoslovakia'
p2624
I11
sS'moves'
p2625
I16
sS'hospitals'
p2626
I29
sS'f / f'
p2627
I38
sS'storage'
p2628
I30
sS'valid'
p2629
I23
sS'evenings'
p2630
I15
sS'mathematics'
p2631
I20
sS'you'
p2632
I6954
sS'forcing'
p2633
I14
sS'poor'
p2634
I151
sS'peak'
p2635
I28
sS'suited'
p2636
I15
sS'pool'
p2637
I45
sS'building'
p2638
I28
sS'restored'
p2639
I18
sS'overseas'
p2640
I12
sS'strings'
p2641
I14
sS'since'
p2642
I29
sS'semantic'
p2643
I13
sS'exhibitions'
p2644
I13
sS'pointing'
p2645
I22
sS'month'
p2646
I150
sS'blanche'
p2647
I11
sS'ceased'
p2648
I15
sS'publish'
p2649
I13
sS'religious'
p2650
I66
sS'carpet'
p2651
I24
sS'dreadful'
p2652
I14
sS'referring'
p2653
I18
sS'1930s'
p2654
I17
sS'dominated'
p2655
I27
sS'confidential'
p2656
I11
sS'homes'
p2657
I61
sS'very'
p2658
I65
sS'horror'
p2659
I21
sS'coloured'
p2660
I19
sS'me'
p2661
I1364
sS'mps'
p2662
I26
sS'decide'
p2663
I67
sS'laura'
p2664
I25
sS'heaven'
p2665
I24
sS'louis'
p2666
I21
sS'mild'
p2667
I16
sS'smith'
p2668
I79
sS'fence'
p2669
I17
sS'streets'
p2670
I49
sS'casual'
p2671
I18
sS'conscience'
p2672
I14
sS'darkness'
p2673
I34
sS'consumers'
p2674
I23
sS'witnessed'
p2675
I11
sS'labels'
p2676
I12
sS'dirt'
p2677
I10
sS'emotions'
p2678
I19
sS'witnesses'
p2679
I16
sS'learned'
p2680
I46
sS'iran'
p2681
I20
sS'loose'
p2682
I26
sS'venice'
p2683
I10
sS'answers'
p2684
I32
sS'forgive'
p2685
I14
sS'tracks'
p2686
I19
sS'selective'
p2687
I13
sS'excess'
p2688
I11
sS'iraq'
p2689
I32
sS'conviction'
p2690
I21
sS'inspired'
p2691
I16
sS'losses'
p2692
I38
sS'fired'
p2693
I20
sS'soldier'
p2694
I18
sS'amount'
p2695
I146
sS'advertising'
p2696
I41
sS'at all'
p2697
I148
sS'trainer'
p2698
I10
sS'family'
p2699
I345
sS'requiring'
p2700
I18
sS'thatcher'
p2701
I34
sS'ask'
p2702
I194
sS'aimed'
p2703
I36
sS'trained'
p2704
I30
sS'toys'
p2705
I12
sS'actress'
p2706
I11
sS'seventeenth'
p2707
I12
sS'conventional'
p2708
I39
sS'in connection with'
p2709
I16
sS'takes'
p2710
I118
sS'iraqi'
p2711
I17
sS'contains'
p2712
I46
sS'taken'
p2713
I355
sS'injury'
p2714
I46
sS'incentive'
p2715
I13
sS'site'
p2716
I97
sS'excuse'
p2717
I14
sS'broke'
p2718
I52
sS'factories'
p2719
I17
sS'producing'
p2720
I40
sS'sovereignty'
p2721
I12
sS'one another'
p2722
I28
sS'coalition'
p2723
I24
sS'nine'
p2724
I136
sS'budgets'
p2725
I13
sS'spontaneous'
p2726
I10
sS'history'
p2727
I193
sS'pushed'
p2728
I50
sS'cows'
p2729
I12
sS'phrase'
p2730
I30
sS'species'
p2731
I96
sS'f.'
p2732
I11
sS'firmly'
p2733
I40
sS'clarke'
p2734
I20
sS'liaison'
p2735
I10
sS'stayed'
p2736
I44
sS'x / x'
p2737
I59
sS'cheshire'
p2738
I11
sS'reject'
p2739
I15
sS'ft'
p2740
I12
sS'tried'
p2741
I150
sS'derived'
p2742
I33
sS'fa'
p2743
I15
sS'tries'
p2744
I15
sS'invasion'
p2745
I19
sS'horizontal'
p2746
I12
sS'compulsory'
p2747
I17
sS'a'
p2748
I10
sS'documentation'
p2749
I12
sS'overnight'
p2750
I12
sS'banks'
p2751
I66
sS'egg'
p2752
I25
sS'help'
p2753
I107
sS'hierarchy'
p2754
I17
sS'soon'
p2755
I161
sS'mucosa'
p2756
I10
sS'held'
p2757
I276
sS'committee'
p2758
I190
sS'committed'
p2759
I46
sS'hell'
p2760
I54
sS'fined'
p2761
I11
sS'reluctance'
p2762
I10
sS'actually'
p2763
I260
sS'absence'
p2764
I58
sS'systems'
p2765
I173
sS'relate'
p2766
I26
sS'post-war'
p2767
I16
sS'fool'
p2768
I15
sS'evening'
p2769
I138
sS'yo'
p2770
I11
sS'food'
p2771
I190
sS'ye'
p2772
I15
sS'except that'
p2773
I14
sS'arsenal'
p2774
I12
sS'foot'
p2775
I73
sS'desperately'
p2776
I20
sS'occasions'
p2777
I39
sS'labour*'
p2778
I131
sS'stopped'
p2779
I96
sS'referred'
p2780
I62
sS'heavy'
p2781
I94
sS'neil'
p2782
I31
sS'fees'
p2783
I29
sS'at once'
p2784
I36
sS'beyond'
p2785
I12
sS'event'
p2786
I104
sS'robert'
p2787
I79
sS'surrounded'
p2788
I24
sS'temporary'
p2789
I38
sS'douglas'
p2790
I24
sS'trusts'
p2791
I14
sS'safety'
p2792
I86
sS'7'
p2793
I107
sS'issue'
p2794
I16
sS'norwich'
p2795
I15
sS'pub'
p2796
I38
sS'houses'
p2797
I96
sS'reason'
p2798
I181
sS'base'
p2799
I86
sS'put'
p2800
I596
sS'earliest'
p2801
I18
sS'loads'
p2802
I15
sS'revolutionary'
p2803
I24
sS'launch'
p2804
I13
sS'terrible'
p2805
I47
sS'terribly'
p2806
I13
sS'american'
p2807
I157
sS'expecting'
p2808
I21
sS'in charge of'
p2809
I17
sS'scheduled'
p2810
I14
sS'probability'
p2811
I16
sS'reflected'
p2812
I38
sS'unexpected'
p2813
I21
sS'mist'
p2814
I11
sS'miss'
p2815
I35
sS'horse'
p2816
I77
sS'st.'
p2817
I17
sS'dug'
p2818
I11
sS'station'
p2819
I100
sS'identity'
p2820
I40
sS'scheme'
p2821
I119
sS'shifted'
p2822
I14
sS'selling'
p2823
I12
sS'passed'
p2824
I107
sS'trapped'
p2825
I15
sS'bowel'
p2826
I12
sS'jordan'
p2827
I14
sS'authors'
p2828
I25
sS'translation'
p2829
I15
sS'1914'
p2830
I11
sS'hundred'
p2831
I191
sS'grey'
p2832
I48
sS'bride'
p2833
I11
sS'recovered'
p2834
I22
sS'in general'
p2835
I42
sS'sentenced'
p2836
I12
sS'charlotte'
p2837
I16
sS'alongside'
p2838
I29
sS'juice'
p2839
I17
sS'substantial'
p2840
I62
sS'sentences'
p2841
I29
sS'concentration'
p2842
I39
sS'organs'
p2843
I10
sS'vulnerable'
p2844
I25
sS'lid'
p2845
I11
sS'lie'
p2846
I43
sS'cave'
p2847
I11
sS'scotland'
p2848
I131
sS'officers'
p2849
I89
sS'lit'
p2850
I23
sS'q / q'
p2851
I18
sS'lip'
p2852
I16
sS'useless'
p2853
I13
sS'liz'
p2854
I17
sS'towards'
p2855
I286
sS'quote'
p2856
I10
sS'experiences'
p2857
I34
sS'eaten'
p2858
I17
sS'comparisons'
p2859
I13
sS'alpha'
p2860
I11
sS'approved'
p2861
I39
sS'salary'
p2862
I20
sS'by means of'
p2863
I16
sS'mobile'
p2864
I14
sS'performances'
p2865
I16
sS'clear'
p2866
I24
sS'calling'
p2867
I41
sS'part-time'
p2868
I20
sS'clean'
p2869
I16
sS'in conjunction with'
p2870
I13
sS'latest'
p2871
I65
sS'physics'
p2872
I19
sS'surrey'
p2873
I16
sS'phenomenon'
p2874
I22
sS'completion'
p2875
I25
sS'northern'
p2876
I43
sS'duncan'
p2877
I15
sS'justice'
p2878
I67
sS'less'
p2879
I101
sS'flights'
p2880
I12
sS'pretty'
p2881
I28
sS'circle'
p2882
I34
sS'darwin'
p2883
I11
sS'dominant'
p2884
I30
sS'meanwhile'
p2885
I48
sS'trees'
p2886
I83
sS'famous'
p2887
I65
sS'feels'
p2888
I33
sS'grew'
p2889
I46
sS'during'
p2890
I440
sS'alexander'
p2891
I26
sS'stored'
p2892
I19
sS'gloves'
p2893
I10
sS'withdrawal'
p2894
I20
sS'switzerland'
p2895
I15
sS'seventeen'
p2896
I18
sS'maurice'
p2897
I10
sS'throwing'
p2898
I18
sS'culture'
p2899
I86
sS'descriptions'
p2900
I15
sS'protecting'
p2901
I12
sS'close'
p2902
I11
sS'wo~'
p2903
I161
sS'probable'
p2904
I12
sS'pictures'
p2905
I54
sS'won'
p2906
I117
sS'probably'
p2907
I273
sS'conditions'
p2908
I154
sS'unconscious'
p2909
I12
sS'missing'
p2910
I15
sS'distinguish'
p2911
I20
sS'abruptly'
p2912
I12
sS'league'
p2913
I83
sS'toward'
p2914
I13
sS'secrets'
p2915
I14
sS'sensitive'
p2916
I36
sS'no doubt'
p2917
I37
sS'experimental'
p2918
I24
sS'liked'
p2919
I56
sS'deciding'
p2920
I19
sS'battery'
p2921
I13
sS'whatever'
p2922
I132
sS'likes'
p2923
I21
sS'vessel'
p2924
I14
sS'swindon'
p2925
I21
sS'described'
p2926
I148
sS'stamp'
p2927
I11
sS'damp'
p2928
I18
sS'describes'
p2929
I26
sS'maintenance'
p2930
I40
sS'for ever'
p2931
I13
sS'collected'
p2932
I33
sS'territory'
p2933
I31
sS'empty'
p2934
I54
sS'walter'
p2935
I19
sS'dialogue'
p2936
I17
sS'lived'
p2937
I82
sS'partly'
p2938
I57
sS'crack'
p2939
I12
sS'else'
p2940
I209
sS'anthony'
p2941
I24
sS'recalled'
p2942
I18
sS'liver'
p2943
I17
sS'pact'
p2944
I11
sS'look'
p2945
I110
sS'socialist'
p2946
I33
sS'governor'
p2947
I23
sS'rope'
p2948
I16
sS'pace'
p2949
I31
sS'while'
p2950
I63
sS'socialism'
p2951
I17
sS'smart'
p2952
I15
sS'fleet'
p2953
I19
sS'mitchell'
p2954
I10
sS'guide'
p2955
I12
sS'pack'
p2956
I25
sS'costly'
p2957
I11
sS'voters'
p2958
I20
sS'funded'
p2959
I13
sS'ready'
p2960
I102
sS'grant'
p2961
I13
sS'belong'
p2962
I21
sS'grand'
p2963
I46
sS'modification'
p2964
I10
sS'shah'
p2965
I10
sS'composition'
p2966
I23
sS'conflict'
p2967
I56
sS'used'
p2968
I45
sS'lawyers'
p2969
I24
sS'bonus'
p2970
I14
sS'youngsters'
p2971
I17
sS'000'
p2972
I15
sS'uses'
p2973
I18
sS'user'
p2974
I60
sS'yeltsin'
p2975
I12
sS'brussels'
p2976
I15
sS'database'
p2977
I34
sS'poland'
p2978
I21
sS'obviously'
p2979
I110
sS'coup'
p2980
I17
sS'settlements'
p2981
I13
sS'reviewed'
p2982
I15
sS'retirement'
p2983
I34
sS'informal'
p2984
I24
sS'guaranteed'
p2985
I13
sS'questioned'
p2986
I18
sS'remaining'
p2987
I12
sS'march'
p2988
I11
sS'lacking'
p2989
I15
sS'evaluate'
p2990
I11
sS'showing'
p2991
I63
sS'game'
p2992
I150
sS'wings'
p2993
I24
sS'submission'
p2994
I11
sS'signal'
p2995
I28
sS'popular'
p2996
I106
sS'eec'
p2997
I12
sS'mathematical'
p2998
I13
sS'parade'
p2999
I10
sS'fathers'
p3000
I12
sS'creation'
p3001
I47
sS'some'
p3002
I1712
sS'metres'
p3003
I34
sS'urgent'
p3004
I22
sS'lips'
p3005
I50
sS'economic'
p3006
I236
sS'delivered'
p3007
I31
sS'describing'
p3008
I19
sS'in relation to'
p3009
I46
sS'minimal'
p3010
I14
sS'sympathetic'
p3011
I15
sS'run'
p3012
I47
sS'booklet'
p3013
I10
sS'processing'
p3014
I30
sS'lakes'
p3015
I12
sS'instead of'
p3016
I72
sS'step'
p3017
I16
sS'nerves'
p3018
I12
sS'abroad'
p3019
I39
sS'wealth'
p3020
I38
sS'faith'
p3021
I52
sS'sake'
p3022
I32
sS'pains'
p3023
I11
sS'sponsored'
p3024
I11
sS'block'
p3025
I36
sS'seeing'
p3026
I61
sS'within'
p3027
I13
sS'nonsense'
p3028
I16
sS'alison'
p3029
I14
sS'statistics'
p3030
I32
sS'computer'
p3031
I138
sS'renewal'
p3032
I11
sS'placing'
p3033
I14
sS'accountability'
p3034
I12
sS'consultation'
p3035
I24
sS'heritage'
p3036
I20
sS'manufacture'
p3037
I13
sS'himself'
p3038
I311
sS'collapsed'
p3039
I16
sS'at last'
p3040
I44
sS'properly'
p3041
I57
sS'authority'
p3042
I183
sS'russian'
p3043
I52
sS'injection'
p3044
I10
sS'dull'
p3045
I18
sS'mineral'
p3046
I12
sS'skull'
p3047
I11
sS'daylight'
p3048
I10
sS'lords'
p3049
I15
sS'chelsea'
p3050
I15
sS'inch'
p3051
I18
sS'ordered'
p3052
I49
sS'adults'
p3053
I33
sS'metals'
p3054
I10
sS'cotton'
p3055
I22
sS'amounts'
p3056
I25
sS'fears'
p3057
I29
sS'application'
p3058
I100
sS'politicians'
p3059
I33
sS'electrical'
p3060
I23
sS'transport'
p3061
I82
sS'department'
p3062
I177
sS'wished'
p3063
I37
sS'draw'
p3064
I14
sS'reportedly'
p3065
I15
sS'visits'
p3066
I28
sS'regulations'
p3067
I42
sS'rested'
p3068
I11
sS'smiled'
p3069
I76
sS'structure'
p3070
I137
sS'independently'
p3071
I14
sS'practically'
p3072
I14
sS'required'
p3073
I20
sS'depth'
p3074
I30
sS'neighbouring'
p3075
I14
sS'requires'
p3076
I53
sS'sounded'
p3077
I30
sS'oct.'
p3078
I32
sS'depending on'
p3079
I23
sS'farms'
p3080
I18
sS'proposition'
p3081
I14
sS'go'
p3082
I21
sS'kate'
p3083
I24
sS'compact'
p3084
I14
sS'nose'
p3085
I43
sS'excluded'
p3086
I23
sS'suite'
p3087
I13
sS'friendly'
p3088
I39
sS'miners'
p3089
I18
sS'wave'
p3090
I32
sS'telling'
p3091
I58
sS'g.'
p3092
I15
sS'stiff'
p3093
I15
sS'positions'
p3094
I39
sS'button'
p3095
I16
sS'michael'
p3096
I95
sS'verdict'
p3097
I14
sS'barbara'
p3098
I17
sS'enforce'
p3099
I10
sS'pretend'
p3100
I12
sS'carter'
p3101
I13
sS'boots'
p3102
I26
sS'jump'
p3103
I16
sS'picked'
p3104
I63
sS'&times;'
p3105
I16
sS'plays'
p3106
I12
sS'paintings'
p3107
I33
sS'colonel'
p3108
I19
sS'cell'
p3109
I55
sS'experiment'
p3110
I27
sS'poles'
p3111
I13
sS'collins'
p3112
I11
sS'nicholas'
p3113
I24
sS'stance'
p3114
I17
sS'commercial'
p3115
I79
sS'following'
p3116
I12
sS'focused'
p3117
I17
sS'convert'
p3118
I11
sS'parameters'
p3119
I11
sS'products'
p3120
I106
sS'gene'
p3121
I21
sS'salvation'
p3122
I11
sS'examining'
p3123
I15
sS'clark'
p3124
I17
sS'danger'
p3125
I60
sS'clare'
p3126
I21
sS'win'
p3127
I22
sS'manage'
p3128
I41
sS'addressed'
p3129
I27
sS'singing'
p3130
I21
sS'cloud'
p3131
I21
sS'remains'
p3132
I15
sS'camera'
p3133
I27
sS'vehicle'
p3134
I42
sS'jonathan'
p3135
I16
sS'reflects'
p3136
I22
sS'cheeks'
p3137
I16
sS'bureaucracy'
p3138
I13
sS'formally'
p3139
I22
sS'started'
p3140
I175
sS'tennis'
p3141
I28
sS'charming'
p3142
I14
sS'appointed'
p3143
I61
sS'whisky'
p3144
I17
sS'salad'
p3145
I11
sS'sanctions'
p3146
I13
sS'ride'
p3147
I17
sS'recession'
p3148
I38
sS'crossed'
p3149
I31
sS'servants'
p3150
I30
sS'backwards'
p3151
I18
sS'once again'
p3152
I37
sS'withdrew'
p3153
I10
sS'control'
p3154
I53
sS'links'
p3155
I35
sS'katherine'
p3156
I11
sS'escaped'
p3157
I19
sS'pulling'
p3158
I24
sS'sought'
p3159
I53
sS'hit'
p3160
I11
sS'skirt'
p3161
I14
sS'poetry'
p3162
I29
sS'arrangement'
p3163
I33
sS'located'
p3164
I25
sS'circular'
p3165
I13
sS'farm'
p3166
I68
sS'given that'
p3167
I12
sS'claire'
p3168
I11
sS'agenda'
p3169
I24
sS'software'
p3170
I94
sS'offences'
p3171
I24
sS'including'
p3172
I11
sS'mentioned'
p3173
I70
sS'b / b'
p3174
I177
sS'outer'
p3175
I24
sS'exclusion'
p3176
I15
sS'masses'
p3177
I13
sS'pensioners'
p3178
I14
sS'pure'
p3179
I34
sS'emphasised'
p3180
I12
sS'hands'
p3181
I188
sS'front'
p3182
I69
sS'kilometres'
p3183
I11
sS'masters'
p3184
I18
sS'university'
p3185
I164
sS'mode'
p3186
I27
sS'crossing'
p3187
I10
sS'shaking'
p3188
I18
sS'commonwealth'
p3189
I18
sS'conservative*'
p3190
I64
sS'constitute'
p3191
I16
sS'measure'
p3192
I18
sS'margins'
p3193
I12
sS'special'
p3194
I220
sS'entertainment'
p3195
I20
sS'critics'
p3196
I27
sS'cause'
p3197
I58
sS'achievements'
p3198
I15
sS'wines'
p3199
I11
sS'recommendations'
p3200
I26
sS'delegates'
p3201
I16
sS'attending'
p3202
I18
sS'completely'
p3203
I86
sS'conservatives'
p3204
I23
sS'ridge'
p3205
I13
sS'princess'
p3206
I29
sS'hostile'
p3207
I16
sS'determining'
p3208
I13
sS'route'
p3209
I56
sS'1981'
p3210
I56
sS'keep'
p3211
I276
sS'keen'
p3212
I37
sS'mad'
p3213
I31
sS'prospective'
p3214
I13
sS'evans'
p3215
I19
sS'powerful'
p3216
I72
sS'improving'
p3217
I16
sS'precisely'
p3218
I35
sS'quality'
p3219
I163
sS'hiding'
p3220
I12
sS'be*'
p3221
I6644
sS'management'
p3222
I218
sS'practitioners'
p3223
I20
sS'privacy'
p3224
I11
sS'journals'
p3225
I10
sS'adopted'
p3226
I51
sS'attack'
p3227
I18
sS'wrapped'
p3228
I17
sS'perfectly'
p3229
I44
sS'tourists'
p3230
I15
sS'exactly'
p3231
I107
sS'lists'
p3232
I22
sS'chemicals'
p3233
I22
sS'overwhelming'
p3234
I14
sS'herself'
p3235
I172
sS'waist'
p3236
I14
sS'photograph'
p3237
I25
sS'ben'
p3238
I32
sS'submitted'
p3239
I22
sS'claim'
p3240
I47
sS'providing'
p3241
I69
sS'distinguished'
p3242
I12
sS'bet'
p3243
I21
sS'lightly'
p3244
I20
sS'unchanged'
p3245
I11
sS'portrait'
p3246
I17
sS'need'
p3247
I169
sS'border'
p3248
I40
sS'bastard'
p3249
I14
sS'pursued'
p3250
I15
sS'able'
p3251
I304
sS'instance'
p3252
I18
sS'relatives'
p3253
I27
sS'truck'
p3254
I12
sS'deposit'
p3255
I17
sS'lectures'
p3256
I15
sS'intentions'
p3257
I15
sS'connected'
p3258
I31
sS'preparations'
p3259
I10
sS'threats'
p3260
I14
sS'gallery'
p3261
I43
sS'd / d'
p3262
I71
sS'consequences'
p3263
I44
sS'upset'
p3264
I14
sS'proceedings'
p3265
I43
sS'lowered'
p3266
I13
sS'gesture'
p3267
I20
sS'databases'
p3268
I10
sS'affair'
p3269
I33
sS'parker'
p3270
I11
sS'anyway'
p3271
I122
sS'south-east'
p3272
I13
sS'parked'
p3273
I13
sS'soldiers'
p3274
I36
sS'shield'
p3275
I10
sS'partners'
p3276
I39
sS'based'
p3277
I186
sS'earned'
p3278
I19
sS'winner'
p3279
I32
sS'employer'
p3280
I30
sS'bases'
p3281
I15
sS'inherited'
p3282
I13
sS'employee'
p3283
I31
sS'employed'
p3284
I49
sS'achieve'
p3285
I68
sS'overall'
p3286
I13
sS'120'
p3287
I10
sS'joint'
p3288
I64
sS'legitimate'
p3289
I15
sS'buyer'
p3290
I27
sS'kong'
p3291
I28
sS'procedures'
p3292
I53
sS'endless'
p3293
I16
sS'gray'
p3294
I11
sS'evolution'
p3295
I25
sS'places'
p3296
I91
sS'tobacco'
p3297
I15
sS'shy'
p3298
I11
sS'she'
p3299
I3801
sS'contain'
p3300
I45
sS'widow'
p3301
I16
sS'spotted'
p3302
I13
sS'prayers'
p3303
I10
sS'pitch'
p3304
I27
sS'humans'
p3305
I20
sS'operates'
p3306
I15
sS'accused'
p3307
I11
sS'yugoslavia'
p3308
I14
sS'powder'
p3309
I13
sS'desperate'
p3310
I26
sS'operated'
p3311
I21
sS'nightmare'
p3312
I14
sS'tend'
p3313
I62
sS'state'
p3314
I26
sS'convince'
p3315
I12
sS'correctly'
p3316
I19
sS'horrible'
p3317
I17
sS'neither'
p3318
I28
sS'tent'
p3319
I12
sS'ken'
p3320
I30
sS'comparable'
p3321
I19
sS'sole'
p3322
I22
sS'importance'
p3323
I97
sS'interfere'
p3324
I11
sS'efficiency'
p3325
I37
sS'key'
p3326
I49
sS'approval'
p3327
I39
sS'precious'
p3328
I16
sS'problem'
p3329
I290
sS'monitor'
p3330
I14
sS'interpretations'
p3331
I11
sS'limits'
p3332
I30
sS'career'
p3333
I77
sS'minds'
p3334
I28
sS'admit'
p3335
I38
sS'torn'
p3336
I10
sS'tuesday'
p3337
I36
sS'invisible'
p3338
I13
sS'kings'
p3339
I15
sS'poem'
p3340
I25
sS'addition'
p3341
I21
sS'discrimination'
p3342
I20
sS'sara'
p3343
I13
sS'quid'
p3344
I14
sS'slowly'
p3345
I79
sS'treat'
p3346
I30
sS'poet'
p3347
I22
sS'in particular'
p3348
I67
sS'shoulders'
p3349
I42
sS'senses'
p3350
I16
sS'controlled'
p3351
I10
sS'both'
p3352
I310
sS'expenditure'
p3353
I55
sS'ours'
p3354
I17
sS'smoking'
p3355
I11
sS'novel'
p3356
I11
sS'contexts'
p3357
I12
sS'decades'
p3358
I25
sS'liberal*'
p3359
I54
sS'harder'
p3360
I14
sS'resident'
p3361
I12
sS'surface'
p3362
I90
sS'examined'
p3363
I36
sS'began'
p3364
I237
sS'strange'
p3365
I64
sS'speaker'
p3366
I80
sS'underground'
p3367
I11
sS'party'
p3368
I403
sS'practitioner'
p3369
I11
sS'annie'
p3370
I11
sS'appearances'
p3371
I12
sS'forgotten'
p3372
I38
sS'effect'
p3373
I228
sS'fierce'
p3374
I16
sS'frequently'
p3375
I58
sS'destruction'
p3376
I24
sS'scarcely'
p3377
I17
sS'transaction'
p3378
I23
sS'ashley'
p3379
I11
sS'reflection'
p3380
I20
sS'i'
p3381
I8875
sS'nonetheless'
p3382
I13
sS'well'
p3383
I42
sS'dressed'
p3384
I37
sS'restore'
p3385
I17
sS'increasingly'
p3386
I66
sS'oak'
p3387
I16
sS'accurate'
p3388
I29
sS'dose'
p3389
I16
sS'sources'
p3390
I67
sS'mistakes'
p3391
I16
sS'distant'
p3392
I29
sS'skill'
p3393
I35
sS'density'
p3394
I16
sS'headed'
p3395
I27
sS'deposits'
p3396
I19
sS'nato'
p3397
I15
sS'kick'
p3398
I13
sS'fate'
p3399
I22
sS'devised'
p3400
I13
sS'historic'
p3401
I23
sS'burden'
p3402
I26
sS'immediately'
p3403
I102
sS'prominent'
p3404
I23
sS'loss'
p3405
I116
sS'necessary'
p3406
I181
sS'lost'
p3407
I25
sS'sizes'
p3408
I17
sS'alternatively'
p3409
I17
sS'payments'
p3410
I45
sS'lose'
p3411
I65
sS'refugees'
p3412
I19
sS'page'
p3413
I106
sS'shed'
p3414
I12
sS'belonged'
p3415
I16
sS'phenomena'
p3416
I14
sS'library'
p3417
I82
sS'motive'
p3418
I10
sS'cleveland'
p3419
I17
sS'home'
p3420
I194
sS'peter'
p3421
I124
sS'broad'
p3422
I49
sS'demonstrated'
p3423
I27
sS'limitations'
p3424
I18
sS'medieval'
p3425
I25
sS'reaching'
p3426
I29
sS'journal'
p3427
I24
sS'monetary'
p3428
I28
sS'expansion'
p3429
I36
sS'scots'
p3430
I12
sS'instinct'
p3431
I11
sS'in view of'
p3432
I15
sS'freedom'
p3433
I61
sS'consciousness'
p3434
I26
sS'recognized'
p3435
I30
sS'madame'
p3436
I11
sS'compatible'
p3437
I12
sS'tongue'
p3438
I24
sS'persuaded'
p3439
I21
sS'equally'
p3440
I66
sS'previously'
p3441
I69
sS'washington'
p3442
I33
sS'h.'
p3443
I17
sS'artists'
p3444
I40
sS'managing'
p3445
I11
sS'utility'
p3446
I10
sS'additional'
p3447
I74
sS'whom'
p3448
I129
sS'museum'
p3449
I68
sS'imperial'
p3450
I24
sS'inner'
p3451
I45
sS'inspiration'
p3452
I14
sS'cricket'
p3453
I33
sS'north'
p3454
I54
sS'hp'
p3455
I11
sS'subjective'
p3456
I12
sS'neutral'
p3457
I16
sS'gain'
p3458
I15
sS'courts'
p3459
I59
sS'ha'
p3460
I30
sS'brick'
p3461
I18
sS'he'
p3462
I6810
sS'cells'
p3463
I76
sS'signed'
p3464
I57
sS'carriage'
p3465
I20
sS'converted'
p3466
I20
sS'limit'
p3467
I16
sS'piece'
p3468
I92
sS'display'
p3469
I19
sS'universal'
p3470
I26
sS'penny'
p3471
I12
sS'kissed'
p3472
I18
sS'eric'
p3473
I19
sS'functions'
p3474
I51
sS'contest'
p3475
I14
sS'envisaged'
p3476
I12
sS'westminster'
p3477
I22
sS'onwards'
p3478
I14
sS'compete'
p3479
I19
sS'star'
p3480
I61
sS'stay'
p3481
I11
sS'friends'
p3482
I151
sS'appoint'
p3483
I10
sS'persistent'
p3484
I13
sS'portion'
p3485
I11
sS'diagnosis'
p3486
I17
sS'determination'
p3487
I28
sS'indirectly'
p3488
I10
sS'secondly'
p3489
I29
sS'pardon'
p3490
I17
sS'dynamic'
p3491
I16
sS'nottingham'
p3492
I21
sS'protest'
p3493
I28
sS'asian'
p3494
I19
sS'consists'
p3495
I26
sS'captain'
p3496
I54
sS'whose'
p3497
I198
sS'calculate'
p3498
I10
sS'disability'
p3499
I15
sS'pensions'
p3500
I19
sS'presents'
p3501
I16
sS'trousers'
p3502
I23
sS'teaching'
p3503
I33
sS'sorry'
p3504
I114
sS'rescue'
p3505
I17
sS'dioxide'
p3506
I14
sS'railways'
p3507
I19
sS'reforms'
p3508
I28
sS'affect'
p3509
I48
sS'vast'
p3510
I47
sS'skills'
p3511
I91
sS'companies'
p3512
I178
sS'solution'
p3513
I69
sS'herbert'
p3514
I12
sS'enhance'
p3515
I14
sS'in favour of'
p3516
I36
sS'heading'
p3517
I10
sS'clothes'
p3518
I73
sS'favoured'
p3519
I13
sS'force'
p3520
I22
sS'japanese'
p3521
I11
sS'me*'
p3522
I23
sS'likely'
p3523
I227
sS'implemented'
p3524
I17
sS'colourful'
p3525
I11
sS'no matter how'
p3526
I10
sS'even'
p3527
I716
sS'integrity'
p3528
I15
sS'orchestra'
p3529
I15
sS'asia'
p3530
I30
sS'spokesman'
p3531
I40
sS'lights'
p3532
I46
sS'dr.'
p3533
I12
sS'new'
p3534
I106
sS'net'
p3535
I25
sS'ever'
p3536
I259
sS'deemed'
p3537
I14
sS'incentives'
p3538
I10
sS'never'
p3539
I559
sS'drew'
p3540
I46
sS'10%'
p3541
I13
sS'met'
p3542
I138
sS'governing'
p3543
I10
sS'active'
p3544
I73
sS'100'
p3545
I69
sS'interpret'
p3546
I13
sS'dry'
p3547
I12
sS'tapes'
p3548
I14
sS'economics'
p3549
I29
sS'ignoring'
p3550
I12
sS'eh'
p3551
I35
sS'credit'
p3552
I71
sS'permit'
p3553
I14
sS'suitable'
p3554
I61
sS'decision-making'
p3555
I14
sS'reckoned'
p3556
I10
sS'fantastic'
p3557
I12
sS'plea'
p3558
I12
sS'campaign'
p3559
I91
sS'mobility'
p3560
I15
sS'reagan'
p3561
I11
sS'county'
p3562
I113
sS'ninety'
p3563
I42
sS'moral'
p3564
I52
sS'guests'
p3565
I34
sS'counts'
p3566
I12
sS'landscape'
p3567
I33
sS'army'
p3568
I114
sS'arms'
p3569
I110
sS'bike'
p3570
I18
sS'call'
p3571
I60
sS'calm'
p3572
I12
sS'recommend'
p3573
I18
sS'survive'
p3574
I35
sS'type'
p3575
I170
sS'tell'
p3576
I307
sS'supporters'
p3577
I37
sS'wars'
p3578
I19
sS'warn'
p3579
I11
sS'berlin'
p3580
I27
sS'warm'
p3581
I64
sS'adult'
p3582
I45
sS'ward'
p3583
I15
sS'\xc2\xa31'
p3584
I14
sS'room'
p3585
I309
sS'rights'
p3586
I130
sS'roof'
p3587
I41
sS'movies'
p3588
I10
sS'exceptions'
p3589
I15
sS'root'
p3590
I20
sS'give'
p3591
I451
sS'involve'
p3592
I42
sS'10,000'
p3593
I12
sS'foods'
p3594
I21
sS'autonomy'
p3595
I18
sS'amazing'
p3596
I19
sS'answer'
p3597
I52
sS'massive'
p3598
I44
sS'minority'
p3599
I34
sS'replacing'
p3600
I15
sS'loyalty'
p3601
I17
sS'curiosity'
p3602
I12
sS'president'
p3603
I164
sS'purchase'
p3604
I14
sS'attempt'
p3605
I26
sS'third'
p3606
I211
sS'capitalism'
p3607
I19
sS'maintain'
p3608
I54
sS'frequent'
p3609
I24
sS'capitalist'
p3610
I21
sS'operate'
p3611
I40
sS'operations'
p3612
I60
sS'deck'
p3613
I14
sS'murray'
p3614
I12
sS'before'
p3615
I143
sS'personal'
p3616
I176
sS'crew'
p3617
I30
sS'better'
p3618
I143
sS'differently'
p3619
I15
sS'weeks'
p3620
I154
sS'overcome'
p3621
I26
sS'dec.'
p3622
I28
sS'combination'
p3623
I44
sS'weakness'
p3624
I17
sS'unemployed'
p3625
I28
sS'therapy'
p3626
I19
sS'grammar'
p3627
I24
sS'meat'
p3628
I36
sS'arrested'
p3629
I35
sS'lucy'
p3630
I27
sS'leaned'
p3631
I23
sS'discipline'
p3632
I55
sS'went'
p3633
I483
sS'side'
p3634
I335
sS'bone'
p3635
I24
sS'mean'
p3636
I25
sS'principles'
p3637
I57
sS'taught'
p3638
I38
sS'trading'
p3639
I12
sS'forgot'
p3640
I16
sS'navy'
p3641
I20
sS'aids'
p3642
I32
sS'dawn'
p3643
I15
sS'collector'
p3644
I11
sS'merchants'
p3645
I10
sS'restricted'
p3646
I21
sS'tales'
p3647
I13
sS'crucial'
p3648
I45
sS'content'
p3649
I16
sS'reader'
p3650
I41
sS'surprise'
p3651
I48
sS'turning'
p3652
I58
sS'linear'
p3653
I13
sS'revenge'
p3654
I11
sS'struggle'
p3655
I37
sS'mistress'
p3656
I12
sS'starts'
p3657
I39
sS'messages'
p3658
I20
sS'signature'
p3659
I11
sS'arrived'
p3660
I88
sS'loud'
p3661
I16
sS'stewart'
p3662
I21
sS'features'
p3663
I81
sS'grade'
p3664
I19
sS'hook'
p3665
I11
sS'featured'
p3666
I13
sS'floors'
p3667
I12
sS'feb.'
p3668
I27
sS'girls'
p3669
I96
sS'twisted'
p3670
I11
sS'in touch with'
p3671
I13
sS'hollywood'
p3672
I16
sS'villages'
p3673
I28
sS'somewhat'
p3674
I46
sS'helen'
p3675
I27
sS'peculiar'
p3676
I14
sS'begins'
p3677
I33
sS'distance'
p3678
I66
sS'anxiety'
p3679
I27
sS'structures'
p3680
I44
sS'older'
p3681
I90
sS'enabled'
p3682
I18
sS'preparation'
p3683
I33
sS'matter'
p3684
I38
sS'persuade'
p3685
I24
sS'silly'
p3686
I28
sS'enables'
p3687
I21
sS'sees'
p3688
I35
sS'palace'
p3689
I45
sS'modern'
p3690
I131
sS'mind'
p3691
I72
sS'mine'
p3692
I17
sS'seed'
p3693
I16
sS'seen'
p3694
I376
sS'seem'
p3695
I170
sS'theology'
p3696
I11
sS'seek'
p3697
I54
sS'tells'
p3698
I37
sS'chest'
p3699
I38
sS'up to'
p3700
I94
sS'phoned'
p3701
I13
sS'regular'
p3702
I75
sS'as though'
p3703
I54
sS'marie'
p3704
I18
sS'maria'
p3705
I21
sS'zealand'
p3706
I26
sS'don'
p3707
I13
sS'observation'
p3708
I29
sS'medical'
p3709
I93
sS'm'
p3710
I13
sS'dog'
p3711
I80
sS'competitors'
p3712
I16
sS'points'
p3713
I30
sS'principle'
p3714
I82
sS'consumer'
p3715
I44
sS'dot'
p3716
I11
sS'beaten'
p3717
I19
sS'ambassador'
p3718
I11
sS'visitor'
p3719
I22
sS'jurisdiction'
p3720
I19
sS'ending'
p3721
I14
sS'attempts'
p3722
I47
sS'liberty'
p3723
I14
sS'judges'
p3724
I25
sS'explain'
p3725
I79
sS'debts'
p3726
I19
sS'sugar'
p3727
I36
sS'judged'
p3728
I17
sS'as soon as'
p3729
I45
sS'wearing'
p3730
I50
sS'exports'
p3731
I19
sS'reconstruction'
p3732
I11
sS'stop'
p3733
I20
sS'coast'
p3734
I46
sS'christopher'
p3735
I23
sS'churches'
p3736
I35
sS'quarters'
p3737
I18
sS'comply'
p3738
I14
sS'earl'
p3739
I23
sS'earn'
p3740
I20
sS'bar'
p3741
I77
sS'fields'
p3742
I58
sS'bay'
p3743
I34
sS'bag'
p3744
I53
sS'bad'
p3745
I153
sS'softly'
p3746
I25
sS'architecture'
p3747
I28
sS'ban'
p3748
I24
sS'fertility'
p3749
I12
sS'ears'
p3750
I30
sS'ethical'
p3751
I11
sS'reference'
p3752
I77
sS'testing'
p3753
I14
sS'zones'
p3754
I12
sS'decided'
p3755
I151
sS'subject'
p3756
I179
sS'brazil'
p3757
I17
sS'said'
p3758
I2087
sS'inappropriate'
p3759
I13
sS'artificial'
p3760
I20
sS'continent'
p3761
I16
sS'sorts'
p3762
I30
sS'ignorance'
p3763
I11
sS'cousin'
p3764
I18
sS'picking'
p3765
I21
sS'suggested'
p3766
I106
sS'uncertainty'
p3767
I22
sS'against'
p3768
I562
sS'distinction'
p3769
I41
sS'contribution'
p3770
I54
sS'confronted'
p3771
I12
sS'presumably'
p3772
I33
sS'appeared'
p3773
I107
sS'height'
p3774
I38
sS'initiative'
p3775
I36
sS'loaded'
p3776
I11
sS'proceeded'
p3777
I11
sS'puts'
p3778
I29
sS'basis'
p3779
I145
sS'three'
p3780
I797
sS'tiny'
p3781
I55
sS'commission'
p3782
I102
sS'recognised'
p3783
I43
sS'interest'
p3784
I272
sS'basic'
p3785
I109
sS'entered'
p3786
I59
sS'lovely'
p3787
I63
sS'preston'
p3788
I13
sS'threw'
p3789
I31
sS'deeper'
p3790
I12
sS'quantities'
p3791
I19
sS'sunshine'
p3792
I13
sS'argument'
p3793
I83
sS'personally'
p3794
I27
sS'exception'
p3795
I29
sS'tank'
p3796
I33
sS'because of'
p3797
I178
sS'transformation'
p3798
I17
sS'ugly'
p3799
I14
sS'near'
p3800
I16
sS'suppose'
p3801
I107
sS'balance'
p3802
I81
sS'employees'
p3803
I58
sS'seven'
p3804
I173
sS'metropolitan'
p3805
I17
sS'mexico'
p3806
I16
sS'is'
p3807
I9982
sS'it'
p3808
I14
sS'defeated'
p3809
I15
sS'iv'
p3810
I28
sS'ii'
p3811
I88
sS'shame'
p3812
I19
sS'in'
p3813
I573
sS'ie'
p3814
I15
sS'disappear'
p3815
I14
sS'if'
p3816
I2369
sS'grown'
p3817
I43
sS'bottles'
p3818
I18
sS'parish'
p3819
I39
sS'make'
p3820
I791
sS's / s'
p3821
I73
sS'potentially'
p3822
I24
sS'unfortunate'
p3823
I16
sS'grows'
p3824
I13
sS'entitled'
p3825
I23
sS'meets'
p3826
I14
sS'governors'
p3827
I17
sS'kit'
p3828
I18
sS'delight'
p3829
I18
sS'renaissance'
p3830
I11
sS'kim'
p3831
I13
sS'i.'
p3832
I11
sS'opportunity'
p3833
I103
sS'thoughts'
p3834
I47
sS'kid'
p3835
I16
sS'butter'
p3836
I21
sS'programs'
p3837
I18
sS'settled'
p3838
I39
sS'failing'
p3839
I21
sS'materials'
p3840
I68
sS'qualities'
p3841
I25
sS'claims'
p3842
I37
sS'yours'
p3843
I42
sS'left'
p3844
I34
sS'protocol'
p3845
I10
sS'even if'
p3846
I87
sS'sentence'
p3847
I58
sS'sporting'
p3848
I11
sS'unfair'
p3849
I19
sS'assigned'
p3850
I12
sS'identify'
p3851
I50
sS'human'
p3852
I13
sS'facts'
p3853
I53
sS'yep'
p3854
I13
sS'yes'
p3855
I606
sS'yet'
p3856
I337
sS'buyers'
p3857
I17
sS'belfast'
p3858
I36
sS'candidate'
p3859
I40
sS'regarded'
p3860
I70
sS'character'
p3861
I86
sS'magistrates'
p3862
I21
sS'potential'
p3863
I46
sS'save'
p3864
I67
sS'background'
p3865
I62
sS'destroy'
p3866
I20
sS'erected'
p3867
I10
sS'dreams'
p3868
I25
sS'shoulder'
p3869
I46
sS'dignity'
p3870
I13
sS'patience'
p3871
I12
sS'performing'
p3872
I13
sS'manual'
p3873
I12
sS'unnecessary'
p3874
I19
sS'working-class'
p3875
I19
sS'dean'
p3876
I18
sS'deal'
p3877
I67
sS'deaf'
p3878
I27
sS'somehow'
p3879
I45
sS'dead'
p3880
I114
sS'dear'
p3881
I16
sS'short-term'
p3882
I17
sS'separately'
p3883
I18
sS'trace'
p3884
I11
sS'investigations'
p3885
I17
sS'arguing'
p3886
I18
sS'shakespeare'
p3887
I19
sS'meanings'
p3888
I15
sS'bold'
p3889
I12
sS'burn'
p3890
I12
sS'translated'
p3891
I12
sS'confrontation'
p3892
I10
sS'keeper'
p3893
I14
sS'super'
p3894
I16
sS'magazine'
p3895
I47
sS'afternoon'
p3896
I84
sS'islands'
p3897
I36
sS'automatically'
p3898
I28
sS'nerve'
p3899
I13
sS'indians'
p3900
I12
sS'managers'
p3901
I58
sS'formerly'
p3902
I20
sS'intellectual'
p3903
I25
sS'down'
p3904
I98
sS'lies'
p3905
I12
sS'doctrine'
p3906
I17
sS'cardiff'
p3907
I18
sS'1990s'
p3908
I10
sS'frightened'
p3909
I21
sS'communists'
p3910
I12
sS'initial'
p3911
I62
sS'editor'
p3912
I39
sS'fraction'
p3913
I15
sS'form'
p3914
I79
sS'analyse'
p3915
I13
sS'landing'
p3916
I18
sS'ford'
p3917
I22
sS'failure'
p3918
I78
sS'protestant'
p3919
I11
sS'harmony'
p3920
I12
sS'attached'
p3921
I36
sS'trends'
p3922
I21
sS'gould'
p3923
I12
sS'stages'
p3924
I41
sS'temper'
p3925
I12
sS'in spite of'
p3926
I28
sS'classic'
p3927
I26
sS'covers'
p3928
I19
sS'sale'
p3929
I88
sS'ship'
p3930
I43
sS'shit'
p3931
I19
sS'merseyside'
p3932
I11
sS'marxist'
p3933
I12
sS'generally'
p3934
I116
sS'handed'
p3935
I36
sS'digital'
p3936
I20
sS'out of'
p3937
I491
sS'handicap'
p3938
I13
sS'dies'
p3939
I10
sS'felt'
p3940
I278
sS'diet'
p3941
I41
sS'fell'
p3942
I101
sS'reign'
p3943
I18
sS'authorities'
p3944
I130
sS'weekend'
p3945
I63
sS'died'
p3946
I140
sS'billion'
p3947
I48
sS'happening'
p3948
I40
sS'assume'
p3949
I41
sS'daily'
p3950
I14
sS'jacket'
p3951
I30
sS'teeth'
p3952
I47
sS'profits'
p3953
I58
sS'shop'
p3954
I102
sS'managed'
p3955
I75
sS'eldest'
p3956
I10
sS'themes'
p3957
I16
sS'manager'
p3958
I138
sS'mile'
p3959
I32
sS'skin'
p3960
I69
sS'mill'
p3961
I33
sS'milk'
p3962
I48
sS'suicide'
p3963
I18
sS'depend'
p3964
I35
sS'technique'
p3965
I46
sS'father'
p3966
I239
sS'answered'
p3967
I38
sS'finally'
p3968
I130
sS'unpleasant'
p3969
I13
sS'marks'
p3970
I28
sS'suffered'
p3971
I54
sS'adviser'
p3972
I15
sS'string'
p3973
I27
sS'tends'
p3974
I24
sS'advised'
p3975
I25
sS'fragments'
p3976
I14
sS'governments'
p3977
I47
sS'did'
p3978
I1434
sS'die'
p3979
I53
sS'proposals'
p3980
I68
sS'item'
p3981
I38
sS'round'
p3982
I28
sS'shoe'
p3983
I11
sS'olympic'
p3984
I13
sS'talked'
p3985
I44
sS'villa'
p3986
I17
sS'dealing'
p3987
I53
sS'with respect to'
p3988
I13
sS'eating'
p3989
I13
sS'targets'
p3990
I26
sS'adds'
p3991
I22
sS'favour'
p3992
I24
sS'suspect'
p3993
I20
sS'international'
p3994
I221
sS'filled'
p3995
I52
sS'bloke'
p3996
I13
sS'guardian'
p3997
I21
sS'clerk'
p3998
I19
sS'henry'
p3999
I74
sS'french'
p4000
I35
sS'wait'
p4001
I84
sS'box'
p4002
I88
sS'boy'
p4003
I133
sS'canadian'
p4004
I14
sS'institute'
p4005
I53
sS'shift'
p4006
I15
sS'grinned'
p4007
I18
sS'bow'
p4008
I10
sS'exploitation'
p4009
I13
sS'suggestion'
p4010
I31
sS'bob'
p4011
I40
sS'genuinely'
p4012
I14
sS'teenage'
p4013
I11
sS'useful'
p4014
I101
sS'merely'
p4015
I76
sS'flexibility'
p4016
I20
sS'hotels'
p4017
I24
sS'everybody'
p4018
I61
sS'troops'
p4019
I48
sS'aye'
p4020
I52
sS'visit'
p4021
I50
sS'france'
p4022
I123
sS'sharing'
p4023
I21
sS'acceptable'
p4024
I36
sS'curriculum'
p4025
I53
sS'ooh'
p4026
I46
sS'rigid'
p4027
I14
sS'effort'
p4028
I78
sS'fly'
p4029
I29
sS'tokyo'
p4030
I11
sS'avoiding'
p4031
I14
sS'soul'
p4032
I30
sS'reviews'
p4033
I10
sS'soup'
p4034
I14
sS'growing'
p4035
I35
sS'making'
p4036
I14
sS'arrive'
p4037
I29
sS'nearest'
p4038
I20
sS'crazy'
p4039
I18
sS'kenneth'
p4040
I16
sS'predict'
p4041
I14
sS'confused'
p4042
I19
sS'agent'
p4043
I43
sS'sample'
p4044
I44
sS'council'
p4045
I313
sS'dennis'
p4046
I15
sS'pink'
p4047
I30
sS'pine'
p4048
I10
sS'chemical'
p4049
I11
sS'till'
p4050
I24
sS'sunday'
p4051
I93
sS'sword'
p4052
I15
sS'pint'
p4053
I12
sS'map'
p4054
I40
sS'staying'
p4055
I28
sS'designer'
p4056
I19
sS'may'
p4057
I150
sS'max'
p4058
I13
sS'membership'
p4059
I53
sS'designed'
p4060
I100
sS'guys'
p4061
I12
sS'grow'
p4062
I55
sS'man'
p4063
I614
sS'neck'
p4064
I56
sS'johnson'
p4065
I32
sS'maybe'
p4066
I105
sS'borrowing'
p4067
I10
sS'tale'
p4068
I21
sS'inhabitants'
p4069
I15
sS'switch'
p4070
I16
sS'jail'
p4071
I11
sS'silence'
p4072
I56
sS'african'
p4073
I43
sS'basket'
p4074
I13
sS'tall'
p4075
I46
sS'talk'
p4076
I41
sS'shoes'
p4077
I37
sS'disclosure'
p4078
I10
sS'gradual'
p4079
I11
sS'pointed'
p4080
I58
sS'wishing'
p4081
I15
sS'argues'
p4082
I23
sS'stability'
p4083
I21
sS'terrace'
p4084
I18
sS'cuts'
p4085
I12
sS'argued'
p4086
I65
sS'group'
p4087
I414
sS'thank'
p4088
I122
sS'interesting'
p4089
I96
sS'yorkshire'
p4090
I44
sS'policy'
p4091
I260
sS'mail'
p4092
I33
sS'main'
p4093
I245
sS'texas'
p4094
I10
sS'finance'
p4095
I20
sS'views'
p4096
I74
sS'killer'
p4097
I14
sS'sooner'
p4098
I18
sS'lunch'
p4099
I54
sS'touching'
p4100
I10
sS'killed'
p4101
I86
sS'developments'
p4102
I51
sS'possess'
p4103
I15
sS'resignation'
p4104
I22
sS'settings'
p4105
I10
sS'proteins'
p4106
I13
sS'47'
p4107
I11
sS'peasant'
p4108
I16
sS'rock'
p4109
I64
sS'data/datum'
p4110
I182
sS'latin'
p4111
I22
sS'conventions'
p4112
I12
sS'girl'
p4113
I158
sS'morning'
p4114
I211
sS'elizabeth'
p4115
I36
sS'canada'
p4116
I29
sS'living'
p4117
I36
sS'jackson'
p4118
I20
sS'interference'
p4119
I14
sS'miles'
p4120
I98
sS'emerged'
p4121
I38
sS'dutch'
p4122
I23
sS'correct'
p4123
I59
sS'assurance'
p4124
I18
sS'earlier'
p4125
I70
sS'monster'
p4126
I13
sS'mechanisms'
p4127
I20
sS'california'
p4128
I22
sS'lump'
p4129
I11
sS'keith'
p4130
I28
sS'advance'
p4131
I36
sS'language'
p4132
I188
sS'ministry'
p4133
I50
sS'thing'
p4134
I352
sS'think'
p4135
I916
sS'waited'
p4136
I40
sS'first'
p4137
I1193
sS'exotic'
p4138
I11
sS'cheese'
p4139
I26
sS'that is'
p4140
I46
sS'rachel'
p4141
I22
sS'americans'
p4142
I28
sS'long'
p4143
I181
sS'suspended'
p4144
I18
sS'carry'
p4145
I101
sS'corporations'
p4146
I10
sS'sounds'
p4147
I26
sS'rome'
p4148
I34
sS'little'
p4149
I45
sS'meaningful'
p4150
I10
sS'slept'
p4151
I18
sS'anyone'
p4152
I150
sS'alfred'
p4153
I12
sS'speaking'
p4154
I54
sS'eyes'
p4155
I297
sS'allegedly'
p4156
I10
sS'moscow'
p4157
I30
sS'continuous'
p4158
I26
sS'accurately'
p4159
I14
sS'undoubtedly'
p4160
I24
sS'11'
p4161
I92
sS'10'
p4162
I186
sS'13'
p4163
I76
sS'12'
p4164
I121
sS'15'
p4165
I109
sS'14'
p4166
I80
sS'17'
p4167
I63
sS'16'
p4168
I81
sS'19'
p4169
I53
sS'18'
p4170
I81
sS'victorian'
p4171
I25
sS'protected'
p4172
I20
sS'venture'
p4173
I19
sS'were'
p4174
I3227
sS'topics'
p4175
I19
sS'voices'
p4176
I24
sS'conspiracy'
p4177
I11
sS'occupied'
p4178
I26
sS'kevin'
p4179
I23
sS'speakers'
p4180
I22
sS'\xc2\xa31,000'
p4181
I10
sS'efficient'
p4182
I40
sS'shocked'
p4183
I15
sS'squad'
p4184
I25
sS'interior'
p4185
I13
sS'performance'
p4186
I130
sS'registered'
p4187
I14
sS'channel'
p4188
I40
sS'200'
p4189
I35
sS'pain'
p4190
I73
sS'norman'
p4191
I23
sS'theatre'
p4192
I59
sS'normal'
p4193
I124
sS'track'
p4194
I57
sS'incidence'
p4195
I17
sS'far from'
p4196
I11
sS'paid'
p4197
I144
sS'assault'
p4198
I22
sS'20%'
p4199
I11
sS'sheets'
p4200
I24
sS'pair'
p4201
I60
sS'especially'
p4202
I177
sS'surprising'
p4203
I35
sS'diversity'
p4204
I14
sS'harvey'
p4205
I12
sS'precise'
p4206
I29
sS'shot'
p4207
I33
sS'show'
p4208
I87
sS'contemporary'
p4209
I44
sS'representatives'
p4210
I43
sS'drawings'
p4211
I23
sS'corner'
p4212
I75
sS'dick'
p4213
I13
sS'behind'
p4214
I34
sS'black'
p4215
I11
sS'treasury'
p4216
I26
sS'enthusiasm'
p4217
I30
sS'awareness'
p4218
I36
sS'get'
p4219
I995
sS'contracts'
p4220
I44
sS'employers'
p4221
I42
sS'nearly'
p4222
I115
sS'secondary'
p4223
I43
sS'yield'
p4224
I11
sS'summary'
p4225
I28
sS'stupid'
p4226
I33
sS'worrying'
p4227
I11
sS'silently'
p4228
I12
sS'declared'
p4229
I43
sS'thesis'
p4230
I13
sS'eighteenth'
p4231
I20
sS'seat'
p4232
I62
sS'relative'
p4233
I39
sS'j.'
p4234
I42
sS'hereford'
p4235
I11
sS'calendar'
p4236
I11
sS'wonder'
p4237
I19
sS'cleaning'
p4238
I12
sS'label'
p4239
I17
sS'boundaries'
p4240
I24
sS'enough'
p4241
I82
sS'reading'
p4242
I12
sS'across'
p4243
I35
sS'whispered'
p4244
I25
sS'august'
p4245
I79
sS'parent'
p4246
I37
sS'parental'
p4247
I13
sS'killing'
p4248
I11
sS'dates'
p4249
I19
sS'rugby'
p4250
I29
sS'similar'
p4251
I184
sS'trades'
p4252
I12
sS'tour'
p4253
I57
sS'disappointment'
p4254
I15
sS'spare'
p4255
I10
sS'holders'
p4256
I12
sS'among'
p4257
I229
sS'cancer'
p4258
I42
sS'maintained'
p4259
I39
sS'grants'
p4260
I19
sS'stretched'
p4261
I20
sS'disciplinary'
p4262
I11
sS'custody'
p4263
I15
sS'considering'
p4264
I26
sS'sensible'
p4265
I28
sS'arts'
p4266
I53
sS'capable'
p4267
I49
sS'for example'
p4268
I239
sS'barry'
p4269
I19
sS'mark'
p4270
I25
sS'workshop'
p4271
I18
sS'borders'
p4272
I12
sS'marx'
p4273
I19
sS'mary'
p4274
I71
sS'educated'
p4275
I13
sS'shopping'
p4276
I29
sS'offered'
p4277
I106
sS'400'
p4278
I17
sS'dramatic'
p4279
I39
sS'wake'
p4280
I12
sS'declaration'
p4281
I20
sS'those'
p4282
I888
sS'sound'
p4283
I12
sS'residence'
p4284
I17
sS'cancelled'
p4285
I12
sS'investigating'
p4286
I14
sS'margin'
p4287
I15
sS'conferences'
p4288
I12
sS'eventually'
p4289
I91
sS'characteristics'
p4290
I38
sS'coffee'
p4291
I67
sS'sleeping'
p4292
I11
sS'middle'
p4293
I59
sS'sudden'
p4294
I39
sS'protein'
p4295
I28
sS'everyday'
p4296
I21
sS'tourist'
p4297
I20
sS'bags'
p4298
I22
sS'different'
p4299
I484
sS'pat'
p4300
I18
sS'harsh'
p4301
I15
sS'doctor'
p4302
I105
sS'pay'
p4303
I45
sS'woodland'
p4304
I10
sS'same'
p4305
I615
sS'enquiries'
p4306
I17
sS'speech'
p4307
I78
sS'arguments'
p4308
I38
sS'stepped'
p4309
I29
sS'wimbledon'
p4310
I13
sS'dated'
p4311
I13
sS'oil'
p4312
I102
sS'assist'
p4313
I25
sS'companion'
p4314
I17
sS'running'
p4315
I14
sS'climbing'
p4316
I13
sS'totally'
p4317
I58
sS'largely'
p4318
I73
sS'roughly'
p4319
I23
sS'objection'
p4320
I13
sS'solve'
p4321
I19
sS'bottle'
p4322
I41
sS'consisted'
p4323
I13
sS'gates'
p4324
I19
sS'outdoor'
p4325
I11
sS'money'
p4326
I374
sS'resolution'
p4327
I37
sS'aspect'
p4328
I43
sS'v / v'
p4329
I50
sS'ahead of'
p4330
I26
sS'pile'
p4331
I17
sS'4'
p4332
I201
sS'extensive'
p4333
I41
sS'careers'
p4334
I17
sS'grip'
p4335
I17
sS'grid'
p4336
I11
sS'found*'
p4337
I489
sS'aiming'
p4338
I10
sS'disappointed'
p4339
I21
sS'grim'
p4340
I11
sS'grin'
p4341
I11
sS'christine'
p4342
I11
sS'identifying'
p4343
I15
sS'wan~ [= want]'
p4344
I26
sS'serves'
p4345
I17
sS"'ve"
p4346
I891
sS'facing'
p4347
I38
sS'chamber'
p4348
I29
sS'audience'
p4349
I55
sS'laughing'
p4350
I24
sS'served'
p4351
I64
sS'fulfil'
p4352
I12
sS'jews'
p4353
I18
sS'imprisonment'
p4354
I15
sS'specified'
p4355
I12
sS'images'
p4356
I36
sS'joan'
p4357
I19
sS'gross'
p4358
I23
sS'confirm'
p4359
I26
sS'colonial'
p4360
I15
sS'critical'
p4361
I58
sS'expressing'
p4362
I14
sS'moderate'
p4363
I14
sS'knife'
p4364
I27
sS'measuring'
p4365
I14
sS'seconds'
p4366
I42
sS'claudia'
p4367
I11
sS'fitness'
p4368
I16
sS'notable'
p4369
I16
sS'unusual'
p4370
I41
sS'notably'
p4371
I24
sS'broken'
p4372
I29
sS'refers'
p4373
I20
sS'manufacturer'
p4374
I18
sS'william'
p4375
I84
sS'stations'
p4376
I37
sS'island'
p4377
I66
sS'violence'
p4378
I56
sS'sustain'
p4379
I13
sS'meaning'
p4380
I15
sS'practical'
p4381
I77
sS'airline'
p4382
I11
sS'pockets'
p4383
I16
sS'mixed'
p4384
I20
sS'road'
p4385
I273
sS'quietly'
p4386
I41
sS'lands'
p4387
I21
sS'skilled'
p4388
I18
sS'references'
p4389
I20
sS'strip'
p4390
I16
sS'decisive'
p4391
I12
sS'strikes'
p4392
I11
sS'sophisticated'
p4393
I25
sS'of course'
p4394
I310
sS'downstairs'
p4395
I17
sS'arranged'
p4396
I40
sS'romantic'
p4397
I21
sS'emissions'
p4398
I15
sS'affection'
p4399
I14
sS'videos'
p4400
I11
sS'deep'
p4401
I27
sS'fellow'
p4402
I19
sS'imagination'
p4403
I27
sS'examine'
p4404
I37
sS'file'
p4405
I56
sS'girlfriend'
p4406
I12
sS'lifetime'
p4407
I18
sS'eliot'
p4408
I19
sS'illegal'
p4409
I24
sS'film'
p4410
I101
sS'fill'
p4411
I39
sS'again'
p4412
I561
sS'assessing'
p4413
I14
sS'personnel'
p4414
I33
sS'drivers'
p4415
I26
sS'field'
p4416
I143
sS'students'
p4417
I146
sS'important'
p4418
I392
sS'tackle'
p4419
I16
sS'decorated'
p4420
I11
sS'remote'
p4421
I29
sS'assets'
p4422
I43
sS'kuwait'
p4423
I16
sS'starting'
p4424
I17
sS'represent'
p4425
I46
sS'colleges'
p4426
I25
sS'forget'
p4427
I62
sS'founder'
p4428
I12
sS'dollar'
p4429
I20
sS'founded'
p4430
I27
sS'invariably'
p4431
I16
sS'talks'
p4432
I60
sS'expressions'
p4433
I13
sS'allowances'
p4434
I13
sS'children'
p4435
I466
sS'reluctant'
p4436
I20
sS'o / o'
p4437
I45
sS'preserved'
p4438
I16
sS'enjoying'
p4439
I22
sS'premium'
p4440
I12
sS'straightforward'
p4441
I20
sS'returning'
p4442
I33
sS'fall'
p4443
I41
sS'difference'
p4444
I113
sS'cheerful'
p4445
I12
sS't / t'
p4446
I59
sS'washing'
p4447
I11
sS'mothers'
p4448
I33
sS'applicable'
p4449
I14
sS'gaulle'
p4450
I10
sS'biological'
p4451
I20
sS'economically'
p4452
I10
sS'zero'
p4453
I15
sS'perception'
p4454
I22
sS'perspective'
p4455
I31
sS'lawyer'
p4456
I22
sS'further'
p4457
I144
sS'creatures'
p4458
I21
sS'defence'
p4459
I116
sS'stood'
p4460
I133
sS'tribute'
p4461
I15
sS'public'
p4462
I96
sS'movement'
p4463
I135
sS'promising'
p4464
I13
sS'component'
p4465
I26
sS'favourable'
p4466
I15
sS'disastrous'
p4467
I11
sS'operating'
p4468
I27
sS'publisher'
p4469
I15
sS'search'
p4470
I12
sS'bible'
p4471
I20
sS'stretching'
p4472
I11
sS'airport'
p4473
I29
sS'published'
p4474
I98
sS'narrow'
p4475
I49
sS'buses'
p4476
I15
sS'africa'
p4477
I78
sS'armed'
p4478
I11
sS'readily'
p4479
I28
sS'shareholders'
p4480
I31
sS'eye'
p4481
I95
sS'distinct'
p4482
I32
sS'wiped'
p4483
I12
sS'destination'
p4484
I11
sS'two'
p4485
I1561
sS'comparing'
p4486
I11
sS'de*'
p4487
I19
sS'achieving'
p4488
I18
sS'diamond'
p4489
I11
sS'leonard'
p4490
I10
sS'landed'
p4491
I18
sS'controlling'
p4492
I17
sS'particular'
p4493
I223
sS'nineteen'
p4494
I48
sS'town'
p4495
I180
sS'none'
p4496
I84
sS'hour'
p4497
I113
sS'strain'
p4498
I22
sS'recall'
p4499
I25
sS'des'
p4500
I12
sS'guards'
p4501
I15
sS'remain'
p4502
I90
sS'paragraph'
p4503
I26
sS'clergy'
p4504
I14
sS'abandon'
p4505
I12
sS'strategies'
p4506
I27
sS'dec'
p4507
I16
sS'marble'
p4508
I14
sS'purchaser'
p4509
I18
sS'compare'
p4510
I24
sS'galleries'
p4511
I12
sS'share'
p4512
I54
sS'sphere'
p4513
I13
sS'minimum'
p4514
I20
sS'numbers'
p4515
I113
sS'purchased'
p4516
I16
sS'sharp'
p4517
I44
sS'robinson'
p4518
I16
sS'pence'
p4519
I13
sS'needs'
p4520
I97
sS'awkward'
p4521
I16
sS'acts'
p4522
I14
sS'pressing'
p4523
I14
sS'maps'
p4524
I17
sS'sacred'
p4525
I13
sS'movements'
p4526
I44
sS'advice'
p4527
I104
sS'blood'
p4528
I101
sS'coming'
p4529
I11
sS'response'
p4530
I100
sS'coat'
p4531
I34
sS'coal'
p4532
I51
sS'responsibility'
p4533
I93
sS'pleasure'
p4534
I52
sS'need*'
p4535
I33
sS'playing'
p4536
I101
sS'infant'
p4537
I17
sS'already'
p4538
I343
sS'through'
p4539
I95
sS'existence'
p4540
I66
sS'suffer'
p4541
I35
sS'24'
p4542
I65
sS'25'
p4543
I77
sS'26'
p4544
I44
sS'27'
p4545
I43
sS'20'
p4546
I131
sS'21'
p4547
I56
sS'22'
p4548
I53
sS'23'
p4549
I48
sS'28'
p4550
I50
sS'29'
p4551
I40
sS'late'
p4552
I41
sS'detected'
p4553
I16
sS'good'
p4554
I795
sS'seeking'
p4555
I46
sS'males'
p4556
I22
sS'socially'
p4557
I15
sS'encouraging'
p4558
I21
sS'walls'
p4559
I60
sS'compound'
p4560
I11
sS'oxford'
p4561
I86
sS'struggling'
p4562
I16
sS'association'
p4563
I115
sS'mystery'
p4564
I22
sS'easily'
p4565
I99
sS'pregnant'
p4566
I22
sS'eleanor'
p4567
I12
sS'habits'
p4568
I17
sS'pan'
p4569
I12
sS'gender'
p4570
I20
sS'biscuits'
p4571
I10
sS'ports'
p4572
I11
sS'breakdown'
p4573
I15
sS'harm'
p4574
I23
sS'everyone'
p4575
I133
sS'mental'
p4576
I58
sS'house'
p4577
I501
sS'fish'
p4578
I103
sS'hard'
p4579
I71
sS'idea'
p4580
I217
sS'extended'
p4581
I14
sS'insurance'
p4582
I71
sS'initiatives'
p4583
I19
sS'flower'
p4584
I22
sS'funding'
p4585
I39
sS'participants'
p4586
I22
sS'print'
p4587
I10
sS'evaluation'
p4588
I28
sS'lawrence'
p4589
I22
sS'pleasant'
p4590
I27
sS'difficulty'
p4591
I63
sS'members'
p4592
I297
sS'backed'
p4593
I25
sS'beginning'
p4594
I53
sS'benefits'
p4595
I74
sS'inspection'
p4596
I20
sS'computers'
p4597
I36
sS'conducted'
p4598
I30
sS'harris'
p4599
I19
sS'pilots'
p4600
I11
sS'reinforced'
p4601
I13
sS'copper'
p4602
I18
sS'in order'
p4603
I131
sS'instances'
p4604
I17
sS'done'
p4605
I354
sS'wages'
p4606
I37
sS'cups'
p4607
I12
sS'divorce'
p4608
I17
sS'least'
p4609
I45
sS'paint'
p4610
I13
sS'regulation'
p4611
I26
sS'assumption'
p4612
I31
sS'statement'
p4613
I98
sS'compromise'
p4614
I16
sS'lease'
p4615
I21
sS'muscles'
p4616
I20
sS'needle'
p4617
I13
sS'park'
p4618
I103
sS'part'
p4619
I496
sS'doctors'
p4620
I45
sS'believe'
p4621
I212
sS'farming'
p4622
I22
sS'recording'
p4623
I16
sS'contrary'
p4624
I13
sS'supposed'
p4625
I11
sS'treated'
p4626
I69
sS'aug.'
p4627
I26
sS'curtains'
p4628
I20
sS'ages'
p4629
I36
sS'aged'
p4630
I14
sS'orders'
p4631
I52
sS'mountain'
p4632
I39
sS'built'
p4633
I129
sS'dancing'
p4634
I12
sS'gorbachev'
p4635
I17
sS'makers'
p4636
I14
sS'majority'
p4637
I100
sS'build'
p4638
I68
sS'province'
p4639
I22
sS'eggs'
p4640
I37
sS'salmon'
p4641
I13
sS'chart'
p4642
I15
sS'depths'
p4643
I11
sS'most'
p4644
I422
sS'charm'
p4645
I13
sS'significant'
p4646
I121
sS'services'
p4647
I249
sS'extremely'
p4648
I68
sS'southampton'
p4649
I12
sS'km'
p4650
I14
sS'organise'
p4651
I13
sS'chester'
p4652
I11
sS'joining'
p4653
I22
sS'sector'
p4654
I87
sS'thomas'
p4655
I68
sS'particularly'
p4656
I220
sS'rebels'
p4657
I12
sS'cheltenham'
p4658
I14
sS'obligations'
p4659
I19
sS'scattered'
p4660
I11
sS'in search of'
p4661
I10
sS'businesses'
p4662
I37
sS'carefully'
p4663
I72
sS'fine'
p4664
I127
sS'find'
p4665
I420
sS'gen.'
p4666
I11
sS'giant'
p4667
I18
sS'depended'
p4668
I12
sS'merger'
p4669
I14
sS'nervous'
p4670
I31
sS'distributed'
p4671
I20
sS'19th'
p4672
I12
sS'unhappy'
p4673
I19
sS'8'
p4674
I97
sS'permission'
p4675
I32
sS'luke'
p4676
I35
sS'express'
p4677
I11
sS'cheaper'
p4678
I23
sS'courage'
p4679
I19
sS'breast'
p4680
I17
sS'theft'
p4681
I17
sS'silk'
p4682
I22
sS'resolve'
p4683
I15
sS'remove'
p4684
I39
sS'common'
p4685
I182
sS'gospel'
p4686
I11
sS'restaurants'
p4687
I16
sS'tended'
p4688
I27
sS'lion'
p4689
I12
sS'individual'
p4690
I55
sS'tender'
p4691
I13
sS'forthcoming'
p4692
I16
sS'feared'
p4693
I19
sS'repairs'
p4694
I11
sS'expert'
p4695
I40
sS'visiting'
p4696
I11
sS'electoral'
p4697
I22
sS'fans'
p4698
I33
sS'smallest'
p4699
I11
sS'burned'
p4700
I14
sS'champagne'
p4701
I19
sS'iron'
p4702
I45
sS'dividends'
p4703
I10
sS'aircraft'
p4704
I62
sS'full-time'
p4705
I21
sS'restaurant'
p4706
I35
sS'solely'
p4707
I17
sS'annual'
p4708
I81
sS'foreign'
p4709
I161
sS'point'
p4710
I33
sS'simple'
p4711
I140
sS'simply'
p4712
I177
sS'throughout'
p4713
I116
sS'expensive'
p4714
I59
sS'raise'
p4715
I61
sS'create'
p4716
I82
sS'rivals'
p4717
I15
sS'secret'
p4718
I22
sS'dropping'
p4719
I13
sS'ensured'
p4720
I10
sS'ireland'
p4721
I96
sS'meeting'
p4722
I46
sS'gay'
p4723
I16
sS'gas'
p4724
I73
sS'gap'
p4725
I34
sS'understand'
p4726
I155
sS'prices'
p4727
I101
sS'bile'
p4728
I12
sS'politician'
p4729
I11
sS'raw'
p4730
I25
sS'solid'
p4731
I35
sS'bill'
p4732
I47
sS'elections'
p4733
I59
sS'sexuality'
p4734
I14
sS'replaced'
p4735
I57
sS'further*'
p4736
I216
sS'portugal'
p4737
I11
sS'century'
p4738
I197
sS'encountered'
p4739
I17
sS'itself'
p4740
I237
sS'italy'
p4741
I51
sS'discourse'
p4742
I23
sS'complaints'
p4743
I27
sS'corridor'
p4744
I21
sS'ruth'
p4745
I30
sS'development'
p4746
I324
sS'keys'
p4747
I23
sS'assignment'
p4748
I12
sS'yesterday'
p4749
I195
sS'husbands'
p4750
I10
sS'moment'
p4751
I221
sS'purpose'
p4752
I93
sS'aggregate'
p4753
I11
sS'realm'
p4754
I11
sS'consulted'
p4755
I12
sS'task'
p4756
I92
sS'spent'
p4757
I116
sS'nineteenth-century'
p4758
I10
sS'withdraw'
p4759
I16
sS'thoroughly'
p4760
I21
sS'swiss'
p4761
I14
sS'entry'
p4762
I52
sS'chemistry'
p4763
I20
sS'spend'
p4764
I74
sS'prevention'
p4765
I15
sS'preference'
p4766
I22
sS'snow'
p4767
I30
sS'shape'
p4768
I62
sS'openly'
p4769
I12
sS'thorough'
p4770
I11
sS'alternative'
p4771
I36
sS'1963'
p4772
I14
sS'injuries'
p4773
I26
sS'timber'
p4774
I23
sS'letting'
p4775
I22
sS'cut'
p4776
I29
sS'cup'
p4777
I122
sS'hated'
p4778
I17
sS'deputy'
p4779
I39
sS'shouting'
p4780
I17
sS'deliberately'
p4781
I28
sS'easter'
p4782
I18
sS'excited'
p4783
I16
sS'so as'
p4784
I17
sS'big'
p4785
I255
sS'bid'
p4786
I31
sS'judgement'
p4787
I25
sS'matters'
p4788
I80
sS'bit'
p4789
I11
sS'carers'
p4790
I12
sS'knock'
p4791
I12
sS'cognitive'
p4792
I12
sS'follows'
p4793
I100
sS'austria'
p4794
I13
sS'indication'
p4795
I23
sS'foolish'
p4796
I12
sS'often'
p4797
I376
sS'absolutely'
p4798
I58
sS'obliged'
p4799
I17
sS'magnificent'
p4800
I20
sS'back'
p4801
I11
sS'delegation'
p4802
I16
sS'strongest'
p4803
I10
sS'examples'
p4804
I71
sS'mirror'
p4805
I37
sS'server'
p4806
I15
sS'ourselves'
p4807
I45
sS'scale'
p4808
I74
sS'contacts'
p4809
I21
sS'pet'
p4810
I13
sS'affects'
p4811
I14
sS'decision'
p4812
I168
sS'integration'
p4813
I24
sS'per'
p4814
I135
sS'pen'
p4815
I20
sS'eliminate'
p4816
I11
sS'good*'
p4817
I25
sS'either'
p4818
I58
sS'patient'
p4819
I14
sS'300'
p4820
I24
sS'offenders'
p4821
I13
sS'continuing'
p4822
I19
sS'use'
p4823
I310
sS'goods'
p4824
I101
sS'usa'
p4825
I50
sS'mrs.'
p4826
I23
sS'drama'
p4827
I36
sS'du~*'
p4828
I20
sS'beans'
p4829
I13
sS'consequently'
p4830
I25
sS'pollution'
p4831
I41
sS'jimmy'
p4832
I24
sS'exercises'
p4833
I16
sS'steven'
p4834
I12
sS'lesson'
p4835
I23
sS'grave'
p4836
I13
sS'forward'
p4837
I12
sS'bored'
p4838
I14
sS'opponent'
p4839
I15
sS'invite'
p4840
I12
sS'immigration'
p4841
I11
sS'hoped'
p4842
I51
sS'boys'
p4843
I80
sS'hopes'
p4844
I18
sS'subsidiary'
p4845
I12
sS'directed'
p4846
I34
sS'rejection'
p4847
I15
sS'planet'
p4848
I18
sS"'re"
p4849
I835
sS'exploration'
p4850
I15
sS'planes'
p4851
I11
sS'autonomous'
p4852
I11
sS'well-known'
p4853
I15
sS'sort'
p4854
I19
sS'constant'
p4855
I47
sS'expedition'
p4856
I11
sS'flow'
p4857
I45
sS'~ta*'
p4858
I36
sS'single'
p4859
I177
sS'parliament'
p4860
I97
sS'\xc2\xa310'
p4861
I11
sS'ellen'
p4862
I10
sS'becomes'
p4863
I77
sS'explaining'
p4864
I18
sS'vol.'
p4865
I10
sS'lend'
p4866
I13
sS'favourite'
p4867
I15
sS'prepared'
p4868
I52
sS'restoration'
p4869
I20
sS'utterly'
p4870
I13
sS'desert'
p4871
I18
sS'implies'
p4872
I20
sS'vehicles'
p4873
I31
sS'notion'
p4874
I36
sS'2000'
p4875
I16
sS'implied'
p4876
I16
sS'presenting'
p4877
I14
sS'failures'
p4878
I11
sS'jason'
p4879
I11
sS'hint'
p4880
I14
sS'contacted'
p4881
I11
sS'intensive'
p4882
I18
sS'helps'
p4883
I28
sS'fatal'
p4884
I14
sS'brigade'
p4885
I12
sS'random'
p4886
I18
sS'putting'
p4887
I76
sS'surgeon'
p4888
I11
sS'arrange'
p4889
I23
sS'severely'
p4890
I18
sS'shock'
p4891
I42
sS'clive'
p4892
I10
sS'crop'
p4893
I15
sS'rivers'
p4894
I20
sS'j / j'
p4895
I15
sS'uncomfortable'
p4896
I14
sS'depression'
p4897
I23
sS'chicago'
p4898
I11
sS'giving'
p4899
I125
sS'pipes'
p4900
I12
sS'practices'
p4901
I45
sS'access'
p4902
I100
sS'exercise'
p4903
I24
sS'body'
p4904
I255
sS'justification'
p4905
I18
sS'exchange'
p4906
I82
sS'jointly'
p4907
I11
sS'objects'
p4908
I45
sS'sink'
p4909
I11
sS'others'
p4910
I282
sS'sing'
p4911
I21
sS'implicit'
p4912
I12
sS'extreme'
p4913
I33
sS'39'
p4914
I13
sS'38'
p4915
I15
sS'talent'
p4916
I21
sS'33'
p4917
I17
sS'32'
p4918
I20
sS'31'
p4919
I51
sS'30'
p4920
I114
sS'37'
p4921
I14
sS'36'
p4922
I17
sS'35'
p4923
I25
sS'later'
p4924
I78
sS'climb'
p4925
I16
sS'composed'
p4926
I20
sS'named'
p4927
I44
sS'whether or not'
p4928
I29
sS'private'
p4929
I173
sS'names'
p4930
I76
sS'scandal'
p4931
I15
sS'other than'
p4932
I43
sS'butler'
p4933
I10
sS'themselves'
p4934
I237
sS'defendant'
p4935
I33
sS'trail'
p4936
I12
sS'train'
p4937
I16
sS'prizes'
p4938
I11
sS'ashamed'
p4939
I11
sS'iii'
p4940
I50
sS'account'
p4941
I24
sS'ace'
p4942
I11
sS'tunnel'
p4943
I24
sS'gabriel'
p4944
I13
sS'obvious'
p4945
I85
sS'praise'
p4946
I12
sS'industrial'
p4947
I116
sS'closing'
p4948
I14
sS'fetch'
p4949
I12
sS'borrowed'
p4950
I10
sS'reserved'
p4951
I11
sS'e.g.'
p4952
I49
sS'proportions'
p4953
I15
sS'effectively'
p4954
I51
sS'reserves'
p4955
I20
sS'bones'
p4956
I23
sS'contempt'
p4957
I13
sS'native'
p4958
I24
sS'lamb'
p4959
I10
sS'y / y'
p4960
I29
sS'varied'
p4961
I13
sS'democracy'
p4962
I42
sS'holds'
p4963
I26
sS'hampshire'
p4964
I12
sS'regions'
p4965
I42
sS'responsibilities'
p4966
I29
sS'winners'
p4967
I20
sS'forest'
p4968
I70
sS'stock'
p4969
I76
sS'profile'
p4970
I23
sS'buildings'
p4971
I66
sS'waters'
p4972
I22
sS'philosophy'
p4973
I35
sS'collection'
p4974
I78
sS'bothered'
p4975
I15
sS'leisure'
p4976
I29
sS'lines'
p4977
I102
sS'watson'
p4978
I12
sS'chief'
p4979
I38
sS'furious'
p4980
I13
sS'subsequently'
p4981
I37
sS'lined'
p4982
I12
sS'institutional'
p4983
I20
sS'wedding'
p4984
I33
sS'symbols'
p4985
I13
sS'agricultural'
p4986
I41
sS'fortunate'
p4987
I13
sS'bunch'
p4988
I12
sS'industries'
p4989
I43
sS'phillips'
p4990
I12
sS'le'
p4991
I11
sS'la'
p4992
I19
sS'winning'
p4993
I31
sS'willing'
p4994
I39
sS'criminal'
p4995
I44
sS'dad'
p4996
I73
sS'junction'
p4997
I18
sS'greater'
p4998
I13
sS'spell'
p4999
I13
sS'mention'
p5000
I16
sS'cutting'
p5001
I10
sS'day'
p5002
I12
sS'applicants'
p5003
I12
sS'february'
p5004
I84
sS'warned'
p5005
I40
sS'identified'
p5006
I62
sS'morris'
p5007
I18
sS'experienced'
p5008
I21
sS'constraints'
p5009
I19
sS'programmes'
p5010
I65
sS'sexual'
p5011
I69
sS'defend'
p5012
I21
sS'wholly'
p5013
I22
sS'mate'
p5014
I17
sS'lecture'
p5015
I17
sS'electronics'
p5016
I15
sS'ref'
p5017
I39
sS'red'
p5018
I23
sS'harold'
p5019
I12
sS'approached'
p5020
I29
sS'frank'
p5021
I37
sS'fourteen'
p5022
I27
sS'approaches'
p5023
I26
sS'likelihood'
p5024
I12
sS'p / p'
p5025
I79
sS'interaction'
p5026
I23
sS'allies'
p5027
I16
sS'q.v.'
p5028
I23
sS'allied'
p5029
I14
sS'qualification'
p5030
I13
sS'barriers'
p5031
I15
sS'retain'
p5032
I25
sS'retail'
p5033
I20
sS'facilitate'
p5034
I10
sS'south'
p5035
I67
sS'finest'
p5036
I18
sS'2,000'
p5037
I13
sS'reaches'
p5038
I12
sS'strategic'
p5039
I30
sS'embarrassed'
p5040
I13
sS'improvements'
p5041
I24
sS'reached'
p5042
I124
sS'reliable'
p5043
I22
sS'ancient'
p5044
I50
sS'sadly'
p5045
I19
sS'intermediate'
p5046
I13
sS'cabin'
p5047
I11
sS'gear'
p5048
I19
sS'explanation'
p5049
I47
sS'nobody'
p5050
I62
sS'lamont'
p5051
I12
sS'environmental'
p5052
I84
sS'loved'
p5053
I46
sS'compensation'
p5054
I31
sS'loves'
p5055
I12
sS'lover'
p5056
I18
sS'visited'
p5057
I43
sS'abolished'
p5058
I11
sS'imaginative'
p5059
I10
sS'comfortable'
p5060
I40
sS'tide'
p5061
I18
sS'unlikely'
p5062
I56
sS'throat'
p5063
I32
sS'demonstration'
p5064
I19
sS'r / r'
p5065
I53
sS'mid'
p5066
I15
sS'parks'
p5067
I14
sS'mix'
p5068
I12
sS'concerns'
p5069
I13
sS'provoked'
p5070
I11
sS'unless'
p5071
I110
sS'eight'
p5072
I173
sS'preliminary'
p5073
I18
sS'prisoner'
p5074
I17
sS'striker'
p5075
I13
sS'sally'
p5076
I15
sS'payment'
p5077
I54
sS'enthusiastic'
p5078
I14
sS'gather'
p5079
I16
sS'request'
p5080
I38
sS'disease'
p5081
I89
sS'1,000'
p5082
I19
sS'occasion'
p5083
I53
sS'normally'
p5084
I83
sS'selection'
p5085
I60
sS'text'
p5086
I77
sS'supported'
p5087
I56
sS'less than*'
p5088
I40
sS'portfolio'
p5089
I16
sS'mice'
p5090
I10
sS'staff'
p5091
I226
sS'grabbed'
p5092
I15
sS'knowledge'
p5093
I146
sS'controls'
p5094
I11
sS'bernard'
p5095
I21
sS'communist'
p5096
I42
sS'equilibrium'
p5097
I17
sS'regularly'
p5098
I39
sS'exceptional'
p5099
I17
sS'beat'
p5100
I11
sS'photography'
p5101
I11
sS'bear'
p5102
I12
sS'beam'
p5103
I11
sS'deputies'
p5104
I12
sS'timing'
p5105
I17
sS'areas'
p5106
I234
sS'organ'
p5107
I13
sS'miss*'
p5108
I91
sS'teams'
p5109
I39
sS'fixed'
p5110
I28
sS'gibson'
p5111
I10
sS'exists'
p5112
I32
sS'national'
p5113
I376
sS'intensity'
p5114
I16
sS'enhanced'
p5115
I11
sS'greece'
p5116
I17
sS'phases'
p5117
I10
sS'interview'
p5118
I43
sS'reform'
p5119
I54
sS'pattern'
p5120
I91
sS'ralph'
p5121
I12
sS'difficulties'
p5122
I68
sS'routine'
p5123
I29
sS'progress'
p5124
I76
sS'boundary'
p5125
I20
sS'deliver'
p5126
I22
sS'blake'
p5127
I11
sS'instant'
p5128
I12
sS'freely'
p5129
I16
sS'taking'
p5130
I218
sS'equal'
p5131
I61
sS'attributed'
p5132
I16
sS'trips'
p5133
I11
sS'passing'
p5134
I12
sS'glorious'
p5135
I11
sS'otherwise'
p5136
I88
sS'comment'
p5137
I19
sS'relevant'
p5138
I79
sS'laugh'
p5139
I17
sS'earning'
p5140
I12
sS'tremendous'
p5141
I20
sS'copies'
p5142
I35
sS'gaze'
p5143
I21
sS'certain'
p5144
I220
sS'indicators'
p5145
I11
sS'curtain'
p5146
I14
sS'proposal'
p5147
I42
sS'define'
p5148
I24
sS'arises'
p5149
I18
sS'essentially'
p5150
I36
sS'bulk'
p5151
I20
sS'finished'
p5152
I79
sS'angles'
p5153
I13
sS'assessments'
p5154
I11
sS'general'
p5155
I43
sS'kenya'
p5156
I10
sS'divisions'
p5157
I22
sS'holiday'
p5158
I76
sS'plain'
p5159
I11
sS'appearance'
p5160
I54
sS'even so'
p5161
I15
sS'value'
p5162
I175
sS'promoted'
p5163
I16
sS'et al'
p5164
I30
sS'almost'
p5165
I316
sS'walks'
p5166
I12
sS'helped'
p5167
I76
sS'arrangements'
p5168
I58
sS'claimed'
p5169
I83
sS'partner'
p5170
I49
sS'inspector'
p5171
I29
sS'productivity'
p5172
I20
sS'administration'
p5173
I66
sS'injured'
p5174
I11
sS'practice'
p5175
I171
sS'novels'
p5176
I13
sS'reporting'
p5177
I12
sS'sisters'
p5178
I20
sS'judgment'
p5179
I33
sS'scholars'
p5180
I11
sS'nevertheless'
p5181
I72
sS'weapon'
p5182
I20
sS'thought'
p5183
I95
sS'sets'
p5184
I22
sS'position'
p5185
I228
sS'muscle'
p5186
I18
sS'arising'
p5187
I22
sS'usual'
p5188
I64
sS'stores'
p5189
I23
sS'executive'
p5190
I78
sS'domestic'
p5191
I69
sS'clinic'
p5192
I15
sS'interim'
p5193
I17
sS'seats'
p5194
I47
sS'tough'
p5195
I32
sS'lake'
p5196
I39
sS'bench'
p5197
I20
sS'add'
p5198
I82
sS'citizen'
p5199
I14
sS'crops'
p5200
I16
sS'ought'
p5201
I61
sS'resolved'
p5202
I21
sS'tests'
p5203
I50
sS'worlds'
p5204
I10
sS'like'
p5205
I16
sS'success'
p5206
I134
sS'sofa'
p5207
I10
sS'tons'
p5208
I12
sS'admitted'
p5209
I56
sS'ozone'
p5210
I13
sS'journalist'
p5211
I14
sS'works'
p5212
I63
sS'soft'
p5213
I61
sS'soviet'
p5214
I109
sS'italian'
p5215
I40
sS'accessible'
p5216
I16
sS'classical'
p5217
I33
sS'alive'
p5218
I43
sS'hair'
p5219
I144
sS'wider'
p5220
I49
sS'convey'
p5221
I12
sS'recommendation'
p5222
I14
sS'proper'
p5223
I65
sS'happens'
p5224
I58
sS'vocabulary'
p5225
I12
sS'shelter'
p5226
I14
sS'discretion'
p5227
I19
sS'assuming'
p5228
I19
sS'chains'
p5229
I13
sS'noise'
p5230
I47
sS'slight'
p5231
I30
sS'pools'
p5232
I11
sS'host'
p5233
I27
sS'although'
p5234
I436
sS'worthy'
p5235
I13
sS'snapped'
p5236
I19
sS'panel'
p5237
I37
sS'about'
p5238
I447
sS'actual'
p5239
I68
sS'boards'
p5240
I28
sS'certainty'
p5241
I14
sS'introduced'
p5242
I86
sS'functional'
p5243
I20
sS'chronic'
p5244
I17
sS'guard'
p5245
I25
sS'female'
p5246
I21
sS'1986'
p5247
I79
sS'1987'
p5248
I85
sS'1984'
p5249
I58
sS'1985'
p5250
I74
sS'1982'
p5251
I52
sS'1983'
p5252
I57
sS'1980'
p5253
I52
sS'rushed'
p5254
I15
sS'vegetables'
p5255
I18
sS'outline'
p5256
I14
sS'1988'
p5257
I103
sS'awarded'
p5258
I25
sS'biggest'
p5259
I46
sS'buy'
p5260
I124
sS'bus'
p5261
I54
sS'brand'
p5262
I13
sS'but'
p5263
I22
sS'repeated'
p5264
I32
sS'partially'
p5265
I13
sS'wise'
p5266
I20
sS'glory'
p5267
I17
sS'dangerous'
p5268
I58
sS'j'
p5269
I22
sS'variations'
p5270
I25
sS'minutes'
p5271
I183
sS'supreme'
p5272
I33
sS'rabbits'
p5273
I10
sS'deaths'
p5274
I25
sS'pie'
p5275
I12
sS'pig'
p5276
I13
sS'periods'
p5277
I40
sS'our'
p5278
I950
sS'commentators'
p5279
I10
sS'shooting'
p5280
I11
sS'pit'
p5281
I17
sS'proceeds'
p5282
I11
sS'48'
p5283
I15
sS'46'
p5284
I11
sS'corporation'
p5285
I35
sS'44'
p5286
I12
sS'45'
p5287
I22
sS'claiming'
p5288
I22
sS'detail'
p5289
I61
sS'40'
p5290
I57
sS'41'
p5291
I12
sS'nelson'
p5292
I10
sS'variation'
p5293
I27
sS'bladder'
p5294
I10
sS'cheque'
p5295
I20
sS'christians'
p5296
I16
sS'oral'
p5297
I21
sS'baker'
p5298
I20
sS'pupil'
p5299
I23
sS'accidents'
p5300
I20
sS'limited'
p5301
I40
sS'comparatively'
p5302
I12
sS'facilities'
p5303
I75
sS'sleep'
p5304
I37
sS'hate'
p5305
I27
sS'feeding'
p5306
I18
sS'paris'
p5307
I61
sS'under'
p5308
I56
sS'pride'
p5309
I27
sS'merchant'
p5310
I18
sS'risk'
p5311
I15
sS'rise'
p5312
I34
sS'every'
p5313
I401
sS'jack'
p5314
I57
sS'encounter'
p5315
I10
sS'school'
p5316
I375
sS'venue'
p5317
I12
sS'harriet'
p5318
I17
sS'enjoy'
p5319
I66
sS'leaders'
p5320
I72
sS'disciplines'
p5321
I11
sS'consistent'
p5322
I31
sS'guidelines'
p5323
I23
sS'estimates'
p5324
I19
sS'direct'
p5325
I13
sS'surrounding'
p5326
I14
sS'street'
p5327
I194
sS'estimated'
p5328
I17
sS'blue'
p5329
I12
sS'hide'
p5330
I23
sS'christ'
p5331
I47
sS'organisms'
p5332
I10
sS'specification'
p5333
I13
sS'selected'
p5334
I14
sS'supplied'
p5335
I33
sS'conduct'
p5336
I12
sS'supplier'
p5337
I14
sS'supplies'
p5338
I25
sS'emily'
p5339
I20
sS'seeks'
p5340
I15
sS'kicked'
p5341
I16
sS'stared'
p5342
I46
sS'hundreds'
p5343
I40
sS'studio'
p5344
I76
sS'represented'
p5345
I54
sS'path'
p5346
I62
sS'voice'
p5347
I74
sS'forum'
p5348
I18
sS'auction'
p5349
I13
sS'leaves'
p5350
I29
sS'changed'
p5351
I109
sS'museums'
p5352
I14
sS'analysts'
p5353
I11
sS'abolition'
p5354
I12
sS'changes'
p5355
I183
sS'punishment'
p5356
I23
sS'prints'
p5357
I12
sS'straw'
p5358
I14
sS'julie'
p5359
I14
sS'julia'
p5360
I15
sS'feelings'
p5361
I53
sS'visible'
p5362
I29
sS'middlesbrough'
p5363
I36
sS'would'
p5364
I2551
sS'hospital'
p5365
I151
sS'm.'
p5366
I26
sS'asset'
p5367
I20
sS'assessment'
p5368
I67
sS'breathe'
p5369
I11
sS'grief'
p5370
I14
sS'phone'
p5371
I14
sS'excellent'
p5372
I67
sS'must'
p5373
I723
sS'shoot'
p5374
I15
sS'join'
p5375
I74
sS'mm'
p5376
I17
sS'ml'
p5377
I11
sS"'d [= had]"
p5378
I315
sS'mp'
p5379
I32
sS'ms'
p5380
I17
sS'mr'
p5381
I524
sS'my'
p5382
I1525
sS'shook'
p5383
I53
sS'estate'
p5384
I54
sS'times'
p5385
I292
sS'attract'
p5386
I25
sS'guarantee'
p5387
I14
sS'ceremony'
p5388
I18
sS'end'
p5389
I12
sS'enquiry'
p5390
I18
sS'sitting'
p5391
I81
sS'writers'
p5392
I36
sS'adjacent'
p5393
I11
sS'toxic'
p5394
I12
sS'gate'
p5395
I35
sS'widespread'
p5396
I32
sS'badly'
p5397
I43
sS'description'
p5398
I51
sS'mess'
p5399
I20
sS'demanding'
p5400
I18
sS'parallel'
p5401
I11
sS'splendid'
p5402
I17
sS'amid'
p5403
I11
sS'acknowledged'
p5404
I19
sS'complexity'
p5405
I17
sS'ultimate'
p5406
I25
sS'enter'
p5407
I53
sS'executed'
p5408
I13
sS'interpretation'
p5409
I43
sS'over'
p5410
I584
sS'expects'
p5411
I14
sS'london'
p5412
I351
sS'oven'
p5413
I13
sS'forehead'
p5414
I13
sS'imf'
p5415
I11
sS'expectations'
p5416
I33
sS'writing'
p5417
I53
sS'destroyed'
p5418
I31
sS'glanced'
p5419
I30
sS'diseases'
p5420
I18
sS'prevented'
p5421
I19
sS'norfolk'
p5422
I14
sS'echo'
p5423
I12
sS'tourism'
p5424
I15
sS'shadows'
p5425
I15
sS'netherlands'
p5426
I15
sS'alex'
p5427
I19
sS'bosnia'
p5428
I10
sS'potatoes'
p5429
I16
sS'choir'
p5430
I10
sS'filling'
p5431
I15
sS'victory'
p5432
I56
sS'each'
p5433
I508
sS'diana'
p5434
I23
sS'defences'
p5435
I11
sS'saturday'
p5436
I83
sS't.'
p5437
I12
sS'driving'
p5438
I13
sS'god'
p5439
I36
sS'washed'
p5440
I19
sS'laid'
p5441
I59
sS'got'
p5442
I932
sS'newly'
p5443
I27
sS'twenty-five'
p5444
I12
sS'independence'
p5445
I45
sS'sept.'
p5446
I30
sS'rail'
p5447
I40
sS'free'
p5448
I10
sS'fred'
p5449
I21
sS'formation'
p5450
I40
sS'rain'
p5451
I62
sS'wanted'
p5452
I234
sS'lothian'
p5453
I11
sS'days'
p5454
I331
sS'priorities'
p5455
I20
sS'filter'
p5456
I15
sS'onto'
p5457
I62
sS'gloucester'
p5458
I32
sS'rang'
p5459
I27
sS'appeals'
p5460
I15
sS'researcher'
p5461
I11
sS'primary'
p5462
I86
sS'rank'
p5463
I18
sS'hearing'
p5464
I23
sS'restrict'
p5465
I11
sS'fantasy'
p5466
I13
sS'philosophical'
p5467
I13
sS'relations'
p5468
I112
sS'nhs'
p5469
I25
sS'revival'
p5470
I12
sS'guinness'
p5471
I13
sS'top'
p5472
I112
sS'fiction'
p5473
I20
sS'too'
p5474
I701
sS'tom'
p5475
I55
sS'percentage'
p5476
I28
sS'urban'
p5477
I54
sS'ceiling'
p5478
I23
sS'murder'
p5479
I54
sS'tool'
p5480
I22
sS'serve'
p5481
I53
sS'took'
p5482
I391
sS'solicitor'
p5483
I32
sS'western'
p5484
I99
sS'colitis'
p5485
I10
sS'roles'
p5486
I28
sS'final'
p5487
I28
sS'classes'
p5488
I61
sS'flame'
p5489
I11
sS'raf'
p5490
I19
sS'bridge'
p5491
I58
sS'fashion'
p5492
I45
sS'by no means'
p5493
I16
sS'ran'
p5494
I87
sS'talking'
p5495
I128
sS'rat'
p5496
I11
sS'seminar'
p5497
I12
sS'relatively'
p5498
I79
sS'traditionally'
p5499
I21
sS'1968'
p5500
I24
sS'1969'
p5501
I20
sS'1964'
p5502
I18
sS'1965'
p5503
I16
sS'1966'
p5504
I17
sS'1967'
p5505
I21
sS'1960'
p5506
I15
sS'isolated'
p5507
I12
sS'1962'
p5508
I14
sS'investment'
p5509
I109
sS'contact'
p5510
I42
sS'derek'
p5511
I20
sS'laughed'
p5512
I49
sS'effectiveness'
p5513
I21
sS'though'
p5514
I99
sS'n / n'
p5515
I43
sS'plenty'
p5516
I46
sS'coin'
p5517
I12
sS'metal'
p5518
I46
sS'treaty'
p5519
I50
sS'reputation'
p5520
I37
sS'enterprise'
p5521
I42
sS'chris'
p5522
I45
sS'constance'
p5523
I12
sS'pope'
p5524
I19
sS'reductions'
p5525
I13
sS'queen'
p5526
I77
sS'radio'
p5527
I87
sS'solutions'
p5528
I26
sS'earth'
p5529
I97
sS'availability'
p5530
I19
sS'peasants'
p5531
I17
sS'situations'
p5532
I39
sS'delays'
p5533
I11
sS'photo'
p5534
I12
sS'announce'
p5535
I11
sS'with regard to'
p5536
I17
sS'continuity'
p5537
I13
sS'mixture'
p5538
I33
sS'hostility'
p5539
I14
sS'watch'
p5540
I29
sS'fluid'
p5541
I15
sS'criticized'
p5542
I11
sS'despite'
p5543
I146
sS'report'
p5544
I29
sS'countries'
p5545
I168
sS'twice'
p5546
I63
sS'shots'
p5547
I18
sS'boring'
p5548
I16
sS'automatic'
p5549
I23
sS'large-scale'
p5550
I11
sS'swept'
p5551
I21
sS'habit'
p5552
I23
sS'kinnock'
p5553
I15
sS'1960s'
p5554
I30
sS'resist'
p5555
I20
sS'bed'
p5556
I159
sS'each other'
p5557
I108
sS'disturbing'
p5558
I10
sS'capacity'
p5559
I59
sS'temptation'
p5560
I11
sS'continually'
p5561
I13
sS'grandmother'
p5562
I14
sS'mud'
p5563
I19
sS'catalogue'
p5564
I24
sS'finger'
p5565
I32
sS'hopefully'
p5566
I19
sS'mum'
p5567
I86
sS'approach'
p5568
I17
sS'discovery'
p5569
I28
sS'confusion'
p5570
I29
sS'weak'
p5571
I36
sS'however'
p5572
I605
sS'boss'
p5573
I32
sS'h / h'
p5574
I45
sS'wear'
p5575
I43
sS'news'
p5576
I145
sS'improve'
p5577
I62
sS'faced'
p5578
I45
sS'protect'
p5579
I51
sS'fault'
p5580
I34
sS'players'
p5581
I82
sS'games'
p5582
I62
sS'faces'
p5583
I14
sS'expense'
p5584
I27
sS'karen'
p5585
I16
sS'except for'
p5586
I20
sS'trust'
p5587
I28
sS'hitler'
p5588
I17
sS'conference'
p5589
I101
sS'bathroom'
p5590
I25
sS'beef'
p5591
I15
sS'been'
p5592
I2686
sS'quickly'
p5593
I124
sS'confident'
p5594
I32
sS'beer'
p5595
I33
sS'belongs'
p5596
I12
sS'expected'
p5597
I21
sS'drugs'
p5598
I53
sS'speeches'
p5599
I10
sS'enterprises'
p5600
I17
sS'craft'
p5601
I20
sS'catch'
p5602
I43
sS'lesser'
p5603
I18
sS'teachers'
p5604
I116
sS'stopping'
p5605
I16
sS'procedure'
p5606
I58
sS'expenses'
p5607
I20
sS'experts'
p5608
I32
sS'in front of'
p5609
I66
sS'containing'
p5610
I41
sS'suggest'
p5611
I89
sS'wound'
p5612
I11
sS'beside'
p5613
I58
sS'complex'
p5614
I23
sS'advances'
p5615
I12
sS'several'
p5616
I240
sS'satellite'
p5617
I17
sS'welsh'
p5618
I37
sS'social'
p5619
I422
sS'greeted'
p5620
I14
sS'characters'
p5621
I39
sS'insisted'
p5622
I34
sS'cycle'
p5623
I32
sS'shortly'
p5624
I38
sS'charlie'
p5625
I28
sS'possessed'
p5626
I16
sS'fusion'
p5627
I12
sS'ocean'
p5628
I20
sS'savings'
p5629
I31
sS'greatest'
p5630
I51
sS'mother'
p5631
I262
sS'hearts'
p5632
I15
sS'jean'
p5633
I30
sS'spencer'
p5634
I13
sS'proposed'
p5635
I39
sS'unemployment'
p5636
I64
sS'campbell'
p5637
I16
sS'technological'
p5638
I16
sS'humanity'
p5639
I12
sS'gave'
p5640
I229
sS'bands'
p5641
I20
sS'breaks'
p5642
I11
sS'sussex'
p5643
I20
sS'cultural'
p5644
I65
sS'newcastle'
p5645
I27
sS'judge'
p5646
I20
sS'burnt'
p5647
I10
sS'advanced'
p5648
I17
sS'apart'
p5649
I35
sS'appearing'
p5650
I14
sS'gift'
p5651
I30
sS'55'
p5652
I12
sS'hunt'
p5653
I10
sS'50'
p5654
I67
sS'52'
p5655
I10
sS'specific'
p5656
I113
sS'offices'
p5657
I44
sS'officer'
p5658
I92
sS'arbitrary'
p5659
I11
sS'hung'
p5660
I29
sS'successfully'
p5661
I34
sS'clubs'
p5662
I38
sS'election'
p5663
I98
sS'escape'
p5664
I19
sS'indirect'
p5665
I16
sS'ici'
p5666
I14
sS'cooper'
p5667
I12
sS'establish'
p5668
I53
sS'ice'
p5669
I40
sS'as opposed to'
p5670
I17
sS'everything'
p5671
I187
sS'christmas'
p5672
I88
sS'core'
p5673
I34
sS'corn'
p5674
I12
sS'disappeared'
p5675
I33
sS'discount'
p5676
I19
sS'corp'
p5677
I52
sS'permitted'
p5678
I21
sS'chapter'
p5679
I149
sS'census'
p5680
I10
sS'eat'
p5681
I75
sS'in line with'
p5682
I12
sS'attacks'
p5683
I31
sS'dinner'
p5684
I63
sS'misleading'
p5685
I13
sS'ensure'
p5686
I103
sS'steadily'
p5687
I17
sS'efforts'
p5688
I56
sS'duke'
p5689
I33
sS'primitive'
p5690
I17
sS'aha'
p5691
I26
sS'presence'
p5692
I80
sS'civil'
p5693
I87
sS'obtaining'
p5694
I16
sS'bath'
p5695
I12
sS'accommodate'
p5696
I14
sS'ussr'
p5697
I17
sS'coastal'
p5698
I14
sS'electorate'
p5699
I11
sS'rounds'
p5700
I12
sS'existed'
p5701
I25
sS'rely'
p5702
I27
sS'sunlight'
p5703
I13
sS'why'
p5704
I509
sS'stuck'
p5705
I13
sS'anderson'
p5706
I15
sS'fought'
p5707
I30
sS'crews'
p5708
I11
sS'synthesis'
p5709
I12
sS'head'
p5710
I13
sS'medium'
p5711
I24
sS'amateur'
p5712
I12
sS'attempted'
p5713
I27
sS'differences'
p5714
I78
sS'pp.'
p5715
I55
sS'payable'
p5716
I17
sS'heat'
p5717
I54
sS'uncle'
p5718
I35
sS'solar'
p5719
I13
sS'sustained'
p5720
I12
sS'removed'
p5721
I59
sS'nodded'
p5722
I51
sS'flavour'
p5723
I15
sS'versions'
p5724
I24
sS'donald'
p5725
I16
sS'fury'
p5726
I11
sS'check'
p5727
I18
sS'regime'
p5728
I35
sS'looked'
p5729
I352
sS'faithful'
p5730
I10
sS'no'
p5731
I17
sS'whereas'
p5732
I62
sS'tip'
p5733
I20
sS'tim'
p5734
I34
sS'tin'
p5735
I20
sS'setting'
p5736
I30
sS'papers'
p5737
I64
sS'tie'
p5738
I10
sS'vanished'
p5739
I11
sS'nt'
p5740
I14
sS'picture'
p5741
I105
sS'football'
p5742
I67
sS'discharge'
p5743
I11
sS'younger'
p5744
I53
sS'faster'
p5745
I12
sS'corresponding'
p5746
I14
sS'yacht'
p5747
I10
sS'memorial'
p5748
I15
sS'vietnam'
p5749
I18
sS'remarked'
p5750
I17
sS'serious'
p5751
I124
sS'coach'
p5752
I29
sS'remarkable'
p5753
I35
sS'impression'
p5754
I42
sS'rob'
p5755
I12
sS'varying'
p5756
I13
sS'alternatives'
p5757
I17
sS'focus'
p5758
I21
sS'leads'
p5759
I37
sS'roy'
p5760
I18
sS'remarkably'
p5761
I15
sS'row'
p5762
I48
sS'1948'
p5763
I13
sS'1949'
p5764
I10
sS'1940'
p5765
I12
sS'1946'
p5766
I10
sS'1947'
p5767
I12
sS'1944'
p5768
I11
sS'passage'
p5769
I40
sS'environment'
p5770
I130
sS'charge'
p5771
I14
sS'trustees'
p5772
I12
sS'promoting'
p5773
I15
sS'federation'
p5774
I22
sS'advantage'
p5775
I73
sS'tanks'
p5776
I15
sS'cook'
p5777
I15
sS'cool'
p5778
I31
sS'in response to'
p5779
I20
sS'sighed'
p5780
I21
sS'impressive'
p5781
I30
sS'level'
p5782
I25
sS'posts'
p5783
I22
sS'brother'
p5784
I85
sS'standards'
p5785
I96
sS'quick'
p5786
I58
sS'milton'
p5787
I15
sS'says'
p5788
I398
sS'trend'
p5789
I26
sS'inland'
p5790
I12
sS'colin'
p5791
I25
sS'trent'
p5792
I11
sS'port'
p5793
I30
sS'drinks'
p5794
I21
sS'constitution'
p5795
I40
sS'debate'
p5796
I70
sS'goes'
p5797
I148
sS'reply'
p5798
I13
sS'evolved'
p5799
I12
sS'due to'
p5800
I78
sS'water'
p5801
I349
sS'twentieth'
p5802
I18
sS'groups'
p5803
I193
sS'male'
p5804
I22
sS'thirty'
p5805
I92
sS'healthy'
p5806
I36
sS'lancaster'
p5807
I12
sS'guilty'
p5808
I42
sS'weird'
p5809
I11
sS'by way of'
p5810
I14
sS'emerge'
p5811
I21
sS'humour'
p5812
I22
sS'durham'
p5813
I25
sS'preventing'
p5814
I12
sS'1st'
p5815
I13
sS'swallowed'
p5816
I13
sS'crisis'
p5817
I59
sS'handled'
p5818
I16
sS'athens'
p5819
I11
sS'sports'
p5820
I44
sS'andy'
p5821
I28
sS'memory'
p5822
I76
sS'australian'
p5823
I24
sS'today'
p5824
I263
sS'sessions'
p5825
I21
sS'chocolate'
p5826
I21
sS'fuel'
p5827
I41
sS'cases'
p5828
I183
sS'tribunal'
p5829
I16
sS'local'
p5830
I18
sS'modified'
p5831
I12
sS'districts'
p5832
I18
sS'mortality'
p5833
I23
sS'ferry'
p5834
I11
sS'laughter'
p5835
I22
sS'nursing'
p5836
I12
sS'figure'
p5837
I170
sS'stroke'
p5838
I13
sS'dropped'
p5839
I57
sS'hydrogen'
p5840
I12
sS'parliamentary'
p5841
I43
sS'requirements'
p5842
I60
sS'inheritance'
p5843
I12
sS'secured'
p5844
I19
sS'1'
p5845
I385
sS'vital'
p5846
I51
sS'fourth'
p5847
I61
sS'plus'
p5848
I70
sS'speaks'
p5849
I14
sS'huge'
p5850
I79
sS'eighty'
p5851
I38
sS'crashed'
p5852
I13
sS'birthday'
p5853
I32
sS'representations'
p5854
I14
sS'eighth'
p5855
I13
sS'classroom'
p5856
I23
sS'tories'
p5857
I20
sS'branches'
p5858
I32
sS'succeeded'
p5859
I26
sS'inform'
p5860
I15
sS'representation'
p5861
I37
sS'exclusive'
p5862
I21
sS'comfort'
p5863
I26
sS'mainly'
p5864
I71
sS'worship'
p5865
I13
sS'blocked'
p5866
I13
sS'organisation'
p5867
I83
sS'civic'
p5868
I10
sS'platform'
p5869
I26
sS'offers'
p5870
I13
sS'farmer'
p5871
I22
sS'happened'
p5872
I139
sS'lonely'
p5873
I18
sS'conversations'
p5874
I10
sS'processes'
p5875
I54
sS'delighted'
p5876
I26
sS'underneath'
p5877
I10
sS'qualified'
p5878
I13
sS'hamilton'
p5879
I15
sS'feature'
p5880
I54
sS'term'
p5881
I123
sS'equality'
p5882
I15
sS'name'
p5883
I13
sS'opera'
p5884
I23
sS'corners'
p5885
I16
sS'academy'
p5886
I14
sS'possibilities'
p5887
I25
sS'realistic'
p5888
I19
sS'rangers'
p5889
I12
sS'realise'
p5890
I39
sS'individually'
p5891
I11
sS'catching'
p5892
I13
sS'begun'
p5893
I42
sS'adequately'
p5894
I11
sS'plans'
p5895
I20
sS'ultimately'
p5896
I29
sS'factors'
p5897
I87
sS'profit'
p5898
I56
sS'factory'
p5899
I46
sS'attracted'
p5900
I28
sS'kent'
p5901
I26
sS'eagle'
p5902
I13
sS'attended'
p5903
I35
sS'theory'
p5904
I131
sS'et al.'
p5905
I12
sS'hull'
p5906
I11
sS'accommodation'
p5907
I44
sS'impose'
p5908
I19
sS'motion'
p5909
I46
sS'turn'
p5910
I81
sS'place'
p5911
I43
sS'swing'
p5912
I12
sS'childhood'
p5913
I28
sS'origin'
p5914
I29
sS'surviving'
p5915
I12
sS'revenue'
p5916
I41
sS'faculty'
p5917
I13
sS'symbolic'
p5918
I14
sS'array'
p5919
I11
sS'george'
p5920
I111
sS'millions'
p5921
I27
sS'given'
p5922
I31
sS'ian'
p5923
I53
sS'district'
p5924
I75
sS'virgin'
p5925
I15
sS'plastic'
p5926
I41
sS'returns'
p5927
I12
sS'conservation'
p5928
I14
sS'convention'
p5929
I35
sS'legally'
p5930
I12
sS'white'
p5931
I12
sS'gives'
p5932
I104
sS'exploring'
p5933
I10
sS'cope'
p5934
I40
sS'season'
p5935
I109
sS'refuse'
p5936
I22
sS'alan'
p5937
I52
sS'hut'
p5938
I12
sS'released'
p5939
I50
sS'copy'
p5940
I51
sS'holder'
p5941
I29
sS'specify'
p5942
I13
sS'population'
p5943
I132
sS'wide'
p5944
I113
sS'unfortunately'
p5945
I47
sS'require'
p5946
I69
sS'diplomatic'
p5947
I20
sS'officials'
p5948
I62
sS'aesthetic'
p5949
I12
sS'cards'
p5950
I39
sS'outcome'
p5951
I37
sS'and'
p5952
I26817
sS'anc'
p5953
I10
sS'ann'
p5954
I19
sS'rent'
p5955
I28
sS'any'
p5956
I20
sS'prosperity'
p5957
I11
sS'conversion'
p5958
I21
sS'corbett'
p5959
I15
sS'ideas'
p5960
I111
sS'sciences'
p5961
I21
sS'emphasis'
p5962
I55
sS'strengths'
p5963
I11
sS'sure'
p5964
I240
sS'multiple'
p5965
I22
sS'falls'
p5966
I22
sS'visitors'
p5967
I48
sS'cleared'
p5968
I27
sS'considered'
p5969
I134
sS'adopt'
p5970
I25
sS'hungry'
p5971
I19
sS'hear'
p5972
I137
sS'senior'
p5973
I82
sS'quantity'
p5974
I24
sS'detective'
p5975
I18
sS'workshops'
p5976
I14
sS'allegations'
p5977
I18
sS'spaces'
p5978
I15
sS'gulf'
p5979
I24
sS'written'
p5980
I33
sS'crime'
p5981
I72
sS'wood'
p5982
I22
sS'believing'
p5983
I14
sS'wool'
p5984
I18
sS'jazz'
p5985
I10
sS'expectation'
p5986
I13
sS'trade'
p5987
I191
sS'closure'
p5988
I19
sS'reveal'
p5989
I27
sS'regarding'
p5990
I20
sS'naked'
p5991
I20
sS'jokes'
p5992
I11
sS'embassy'
p5993
I13
sS'predicted'
p5994
I16
sS'discussing'
p5995
I20
sS'ignored'
p5996
I32
sS'connections'
p5997
I21
sS'college'
p5998
I102
sS'parking'
p5999
I15
sS'stanley'
p6000
I14
sS'encouraged'
p6001
I46
sS'surfaces'
p6002
I14
sS'fails'
p6003
I19
sS'detect'
p6004
I13
sS'voluntary'
p6005
I39
sS'mortgage'
p6006
I29
sS'farmers'
p6007
I50
sS'federal'
p6008
I38
sS'subsequent'
p6009
I43
sS'review'
p6010
I17
sS'definite'
p6011
I16
sS'commitments'
p6012
I13
sS'weapons'
p6013
I40
sS'north-west'
p6014
I10
sS'outside'
p6015
I37
sS'arrival'
p6016
I34
sS'rumours'
p6017
I13
sS'guitar'
p6018
I27
sS'unusually'
p6019
I10
sS'cities'
p6020
I44
sS'come'
p6021
I695
sS'reaction'
p6022
I56
sS'region'
p6023
I99
sS'priests'
p6024
I12
sS'quiet'
p6025
I62
sS'contract'
p6026
I114
sS'railway'
p6027
I73
sS'duty'
p6028
I81
sS'pakistan'
p6029
I18
sS'afterwards'
p6030
I46
sS'pot'
p6031
I19
sS'colony'
p6032
I11
sS'period'
p6033
I243
sS'insist'
p6034
I16
sS'resentment'
p6035
I10
sS'60'
p6036
I41
sS'pole'
p6037
I13
sS'65'
p6038
I17
sS'bizarre'
p6039
I11
sS'poll'
p6040
I28
sS'noisy'
p6041
I10
sS'turkey'
p6042
I16
sS'howard'
p6043
I27
sS'50%'
p6044
I11
sS'peaceful'
p6045
I17
sS'helicopter'
p6046
I11
sS'hardly'
p6047
I88
sS'500'
p6048
I23
sS'engine'
p6049
I50
sS'direction'
p6050
I87
sS'andrew'
p6051
I45
sS'minister'
p6052
I237
sS'careful'
p6053
I52
sS'irrelevant'
p6054
I14
sS'champions'
p6055
I15
sS'pilot'
p6056
I31
sS'case'
p6057
I431
sS'myself'
p6058
I125
sS'mount'
p6059
I11
sS'cash'
p6060
I82
sS'arnold'
p6061
I10
sS'cast'
p6062
I30
sS'shops'
p6063
I52
sS'coupled'
p6064
I12
sS'telephone'
p6065
I14
sS'couples'
p6066
I16
sS'someone'
p6067
I187
sS'vivid'
p6068
I10
sS'author'
p6069
I43
sS'granted'
p6070
I46
sS'reminded'
p6071
I24
sS'co / co'
p6072
I40
sS'trip'
p6073
I45
sS'reminder'
p6074
I10
sS'constructed'
p6075
I25
sS'events'
p6076
I105
sS'week'
p6077
I322
sS'nest'
p6078
I13
sS'refusal'
p6079
I19
sS'driver'
p6080
I54
sS'producers'
p6081
I18
sS'persons'
p6082
I40
sS'statutory'
p6083
I37
sS'delicate'
p6084
I18
sS'changing'
p6085
I24
sS'modes'
p6086
I12
sS'without'
p6087
I456
sS'relief'
p6088
I66
sS'components'
p6089
I32
sS'relied'
p6090
I13
sS'inability'
p6091
I11
sS'model'
p6092
I130
sS'reward'
p6093
I17
sS'bodies'
p6094
I70
sS'justify'
p6095
I21
sS'in addition'
p6096
I45
sS'when'
p6097
I431
sS'actions'
p6098
I48
sS'violent'
p6099
I28
sS'kill'
p6100
I46
sS'polish'
p6101
I15
sS'captured'
p6102
I17
sS'blow'
p6103
I13
sS'announcement'
p6104
I24
sS'feminist'
p6105
I14
sS'rose'
p6106
I25
sS'seems'
p6107
I212
sS'except'
p6108
I30
sS'complain'
p6109
I14
sS'samples'
p6110
I27
sS'ross'
p6111
I19
sS'styles'
p6112
I20
sS'virginia'
p6113
I12
sS'inflation'
p6114
I45
sS'confined'
p6115
I22
sS'accepted'
p6116
I10
sS'furniture'
p6117
I35
sS'acute'
p6118
I23
sS'kennedy'
p6119
I13
sS'photographs'
p6120
I33
sS'patrick'
p6121
I30
sS'reduces'
p6122
I12
sS'tower'
p6123
I34
sS'reduced'
p6124
I14
sS'1989'
p6125
I134
sS'jewellery'
p6126
I13
sS'competition'
p6127
I94
sS'table'
p6128
I201
sS'intact'
p6129
I12
sS'provided'
p6130
I30
sS'mood'
p6131
I33
sS'highest'
p6132
I47
sS'legal'
p6133
I131
sS'moon'
p6134
I29
sS'provides'
p6135
I84
sS'nails'
p6136
I13
sS'communicate'
p6137
I15
sS"'d [= would]"
p6138
I353
sS'on'
p6139
I756
sS'ok'
p6140
I11
sS'oh'
p6141
I684
sS'of'
p6142
I29391
sS'discussed'
p6143
I70
sS'stand'
p6144
I19
sS'concentrations'
p6145
I21
sS'gregory'
p6146
I10
sS'or'
p6147
I3707
sS'ladies'
p6148
I33
sS'cambridge'
p6149
I36
sS'communication'
p6150
I61
sS'councillors'
p6151
I20
sS'determine'
p6152
I39
sS'gary'
p6153
I24
sS'immense'
p6154
I14
sS'strictly'
p6155
I20
sS'there'
p6156
I746
sS'alleged'
p6157
I13
sS'christianity'
p6158
I18
sS'strict'
p6159
I21
sS'cultures'
p6160
I16
sS'valley'
p6161
I44
sS'energy'
p6162
I122
sS'regard'
p6163
I17
sS'amongst'
p6164
I45
sS'cabinet'
p6165
I65
sS'promote'
p6166
I32
sS'longer'
p6167
I33
sS'i / i'
p6168
I53
sS'applying'
p6169
I20
sS'flats'
p6170
I19
sS'grass'
p6171
I41
sS'strongly'
p6172
I46
sS'toilet'
p6173
I15
sS'taylor'
p6174
I36
sS'cinema'
p6175
I19
sS'taste'
p6176
I34
sS'britain'
p6177
I251
sS'governed'
p6178
I10
sS'politics'
p6179
I75
sS'bishop'
p6180
I18
sS'deserve'
p6181
I13
sS'loyal'
p6182
I14
sS'rubber'
p6183
I11
sS'roses'
p6184
I15
sS'5'
p6185
I176
sS'requested'
p6186
I15
sS'briefly'
p6187
I33
sS'championship'
p6188
I34
sS'separate'
p6189
I15
sS'symbol'
p6190
I18
sS'includes'
p6191
I68
sS'lovers'
p6192
I12
sS'recognise'
p6193
I36
sS'included'
p6194
I123
sS'brass'
p6195
I15
sS'stocks'
p6196
I16
sS'missed'
p6197
I41
sS'booked'
p6198
I12
sS'calls'
p6199
I30
sS'wife'
p6200
I171
sS'invest'
p6201
I16
sS'odds'
p6202
I15
sS'curve'
p6203
I25
sS'directors'
p6204
I43
sS'directory'
p6205
I15
sS'all'
p6206
I193
sS'lace'
p6207
I12
sS'chinese'
p6208
I40
sS'ali'
p6209
I13
sS'clauses'
p6210
I13
sS'lack'
p6211
I10
sS'disc'
p6212
I16
sS'dish'
p6213
I16
sS'follow'
p6214
I94
sS'disk'
p6215
I26
sS'decisions'
p6216
I75
sS'apartment'
p6217
I13
sS'ron'
p6218
I13
sS'subjected'
p6219
I13
sS'provisions'
p6220
I41
sS'acting'
p6221
I41
sS'thursday'
p6222
I37
sS'removal'
p6223
I21
sS'program'
p6224
I39
sS'painter'
p6225
I12
sS'a great deal'
p6226
I14
sS'presentation'
p6227
I32
sS'activities'
p6228
I116
sS'belonging'
p6229
I14
sS'woman'
p6230
I232
sS'incorporate'
p6231
I11
sS'worse'
p6232
I65
sS'song'
p6233
I40
sS'far'
p6234
I68
sS'rod'
p6235
I14
sS'fat'
p6236
I18
sS'sons'
p6237
I35
sS'worst'
p6238
I46
sS'polytechnic'
p6239
I12
sS'awful'
p6240
I31
sS'ticket'
p6241
I22
sS'treating'
p6242
I13
sS'stimulus'
p6243
I15
sS'list'
p6244
I118
sS'grandfather'
p6245
I15
sS'lisa'
p6246
I13
sS'programme'
p6247
I190
sS'rats'
p6248
I14
sS'ten'
p6249
I203
sS'tea'
p6250
I86
sS'ted'
p6251
I11
sS'robyn'
p6252
I12
sS'rate'
p6253
I189
sS'invention'
p6254
I11
sS'design'
p6255
I119
sS'sue'
p6256
I16
sS'sun'
p6257
I115
sS'sum'
p6258
I41
sS'anniversary'
p6259
I21
sS'version'
p6260
I81
sS'attitudes'
p6261
I48
sS'racing'
p6262
I23
sS'guns'
p6263
I20
sS'devoted'
p6264
I12
sS'toes'
p6265
I10
sS'christian'
p6266
I62
sS'behaviour'
p6267
I123
sS'leeds'
p6268
I48
sS'relaxation'
p6269
I12
sS'directions'
p6270
I22
sS'equations'
p6271
I11
sS'tragedy'
p6272
I18
sS'naval'
p6273
I15
sS'extraordinary'
p6274
I29
sS'allows'
p6275
I41
sS'options'
p6276
I38
sS'suddenly'
p6277
I118
sS'texts'
p6278
I23
sS'1945'
p6279
I18
sS'proceed'
p6280
I21
sS'faint'
p6281
I15
sS'markets'
p6282
I59
sS'minor'
p6283
I47
sS'horses'
p6284
I49
sS'flat'
p6285
I37
sS'israel'
p6286
I32
sS'knows'
p6287
I84
sS'definition'
p6288
I48
sS'operators'
p6289
I15
sS'owners'
p6290
I38
sS'flag'
p6291
I15
sS'basically'
p6292
I31
sS'known'
p6293
I20
sS'glad'
p6294
I41
sS'debates'
p6295
I12
sS'equation'
p6296
I25
sS'policemen'
p6297
I12
sS'v'
p6298
I10
sS'audiences'
p6299
I10
sS'embarrassing'
p6300
I11
sS'division'
p6301
I90
sS'protective'
p6302
I13
sS'arise'
p6303
I33
sS'pond'
p6304
I17
sS'swung'
p6305
I18
sS'influenced'
p6306
I26
sS'court'
p6307
I285
sS'goal'
p6308
I59
sS'rather'
p6309
I213
sS'breaking'
p6310
I30
sS'occasionally'
p6311
I40
sS'influences'
p6312
I14
sS'explains'
p6313
I25
sS'okay'
p6314
I17
sS'reflect'
p6315
I38
sS'lighting'
p6316
I17
sS'adventure'
p6317
I15
sS'concentrating'
p6318
I12
sS'short'
p6319
I177
sS'susan'
p6320
I21
sS'departure'
p6321
I23
sS'supervision'
p6322
I17
sS'shore'
p6323
I15
sS'shade'
p6324
I14
sS'turnover'
p6325
I29
sS'september'
p6326
I104
sS'developed'
p6327
I15
sS'mission'
p6328
I27
sS'disabled'
p6329
I31
sS'scientist'
p6330
I20
sS'darlington'
p6331
I56
sS'~no*'
p6332
I19
sS'avenue'
p6333
I16
sS'style'
p6334
I107
sS'forwards'
p6335
I13
sS'pray'
p6336
I14
sS'abbey'
p6337
I19
sS'resort'
p6338
I19
sS'parts'
p6339
I116
sS'stephen'
p6340
I49
sS'soccer'
p6341
I13
sS'might'
p6342
I614
sS'alter'
p6343
I19
sS'somebody'
p6344
I73
sS'framework'
p6345
I39
sS'communities'
p6346
I41
sS'clouds'
p6347
I16
sS'bigger'
p6348
I36
sS'instructions'
p6349
I36
sS'marcus'
p6350
I11
sS'policeman'
p6351
I21
sS'inherent'
p6352
I13
sS'telegraph'
p6353
I12
sS'friendship'
p6354
I20
sS'weight'
p6355
I85
sS'generation'
p6356
I49
sS'expect'
p6357
I106
sS'undertake'
p6358
I17
sS'organised'
p6359
I32
sS'alcohol'
p6360
I30
sS'wondered'
p6361
I48
sS'health'
p6362
I246
sS'hill'
p6363
I14
sS'induced'
p6364
I12
sS'benjamin'
p6365
I17
sS'friday'
p6366
I55
sS'differ'
p6367
I18
sS'organising'
p6368
I10
sS'teach'
p6369
I28
sS'generate'
p6370
I20
sS'guest'
p6371
I23
sS'thrown'
p6372
I30
sS'prejudice'
p6373
I11
sS'circuit'
p6374
I26
sS'twenty'
p6375
I156
sS'consequence'
p6376
I34
sS'fallen'
p6377
I36
sS'feed'
p6378
I24
sS'feel'
p6379
I256
sS'radical'
p6380
I37
sS'fancy'
p6381
I12
sS'linking'
p6382
I12
sS'feet'
p6383
I141
sS'sympathy'
p6384
I22
sS'for instance'
p6385
I74
sS'revolution'
p6386
I47
sS'construct'
p6387
I13
sS'blank'
p6388
I15
sS'north-east'
p6389
I17
sS'passes'
p6390
I13
sS'story'
p6391
I137
sS'temperature'
p6392
I44
sS'script'
p6393
I12
sS'leading'
p6394
I52
sS'interviews'
p6395
I24
sS'strategy'
p6396
I62
sS'storm'
p6397
I23
sS'store'
p6398
I36
sS'option'
p6399
I54
sS'pump'
p6400
I10
sS'relieved'
p6401
I12
sS'exploded'
p6402
I10
sS'hotel'
p6403
I114
sS'convinced'
p6404
I25
sS'king'
p6405
I16
sS'kind'
p6406
I14
sS'double'
p6407
I11
sS'instruction'
p6408
I23
sS'aims'
p6409
I17
sS'states'
p6410
I19
sS'architect'
p6411
I16
sS'risks'
p6412
I25
sS'motivation'
p6413
I15
sS'outstanding'
p6414
I30
sS'strengthen'
p6415
I12
sS'imports'
p6416
I19
sS'suspicious'
p6417
I14
sS'alike'
p6418
I12
sS'cleaned'
p6419
I11
sS'gall'
p6420
I10
sS'wilson'
p6421
I40
sS'nights'
p6422
I28
sS'bacteria'
p6423
I13
sS'now that'
p6424
I30
sS'chairman'
p6425
I112
sS'finding'
p6426
I12
sS'added'
p6427
I15
sS'electric'
p6428
I34
sS'reckon'
p6429
I21
sS'measures'
p6430
I65
sS'reach'
p6431
I13
sS'architects'
p6432
I11
sS'react'
p6433
I13
sS'cigarette'
p6434
I23
sS'75'
p6435
I17
sS'70'
p6436
I26
sS'nothing'
p6437
I341
sS'seasons'
p6438
I12
sS'measured'
p6439
I30
sS'achievement'
p6440
I31
sS'stands'
p6441
I29
sS"~n't"
p6442
I3328
sS'dealers'
p6443
I18
sS'windows'
p6444
I88
sS'traditional'
p6445
I99
sS'institutions'
p6446
I65
sS'lying'
p6447
I46
sS'stones'
p6448
I33
sS'fond'
p6449
I12
sS'carrie'
p6450
I12
sS'penalty'
p6451
I27
sS'hip'
p6452
I10
sS'his'
p6453
I4285
sS'publicity'
p6454
I25
sS'gains'
p6455
I21
sS'hiv'
p6456
I16
sS'him'
p6457
I1649
sS'investigate'
p6458
I24
sS'activity'
p6459
I115
sS'wrote'
p6460
I99
sS'bars'
p6461
I24
sS'art'
p6462
I153
sS'achieved'
p6463
I79
sS'intelligence'
p6464
I35
sS'bare'
p6465
I22
sS'are'
p6466
I4707
sS'arm'
p6467
I91
sS'declined'
p6468
I21
sS'barn'
p6469
I13
sS'youth'
p6470
I54
sS'learnt'
p6471
I22
sS'distinctive'
p6472
I22
sS'libraries'
p6473
I22
sS'unions'
p6474
I45
sS'various'
p6475
I155
sS'numerous'
p6476
I32
sS'corruption'
p6477
I14
sS'korea'
p6478
I19
sS'recently'
p6479
I123
sS'creating'
p6480
I35
sS'initially'
p6481
I38
sS'sold'
p6482
I84
sS'attention'
p6483
I137
sS'succeed'
p6484
I21
sS'opposition'
p6485
I91
sS'competent'
p6486
I12
sS'bronze'
p6487
I15
sS'c'
p6488
I19
sS'roman'
p6489
I44
sS'became'
p6490
I223
sS'context'
p6491
I86
sS'bond'
p6492
I10
sS'finds'
p6493
I29
sS'albeit'
p6494
I14
sS'distress'
p6495
I15
sS'reasons'
p6496
I108
sS'sweet'
p6497
I33
sS'harbour'
p6498
I18
sS'village'
p6499
I109
sS'decline'
p6500
I41
sS'incomes'
p6501
I15
sS'political'
p6502
I306
sS'due'
p6503
I75
sS'appears'
p6504
I77
sS'pc'
p6505
I23
sS'reduction'
p6506
I48
sS'make-up'
p6507
I13
sS'extends'
p6508
I10
sS'ph'
p6509
I15
sS'woke'
p6510
I14
sS'pm'
p6511
I11
sS'referee'
p6512
I11
sS'flight'
p6513
I52
sS'1950s'
p6514
I20
sS'precision'
p6515
I12
sS'demand'
p6516
I21
sS'plants'
p6517
I72
sS'stolen'
p6518
I19
sS'conception'
p6519
I19
sS'frozen'
p6520
I11
sS'shake'
p6521
I13
sS'p.'
p6522
I14
sS'engineers'
p6523
I25
sS'dublin'
p6524
I23
sS'rid'
p6525
I26
sS'lengthy'
p6526
I12
sS'shirt'
p6527
I28
sS'lengths'
p6528
I13
sS'delicious'
p6529
I11
sS'widely'
p6530
I56
sS'peoples'
p6531
I15
sS'9'
p6532
I80
sS'advise'
p6533
I20
sS'daughters'
p6534
I21
sS'higher'
p6535
I156
sS'literature'
p6536
I52
sS'paths'
p6537
I14
sS'restraint'
p6538
I11
sS'negotiate'
p6539
I13
sS'holidays'
p6540
I28
sS'flown'
p6541
I11
sS'moving'
p6542
I89
sS'lower'
p6543
I111
sS'cheek'
p6544
I19
sS'anybody'
p6545
I50
sS'analysis'
p6546
I132
sS'no longer'
p6547
I88
sS'edge'
p6548
I75
sS'machinery'
p6549
I24
sS'stating'
p6550
I10
sS'abilities'
p6551
I13
sS'competitive'
p6552
I37
sS'intervals'
p6553
I16
sS'questions'
p6554
I143
sS'regardless'
p6555
I15
sS'prince'
p6556
I59
sS'profitable'
p6557
I14
sS'tables'
p6558
I29
sS'advisers'
p6559
I18
sS'workers'
p6560
I147
sS'exclusively'
p6561
I17
sS'exhibition'
p6562
I54
sS'associations'
p6563
I20
sS'complaint'
p6564
I18
sS'vendor'
p6565
I15
sS'shaped'
p6566
I11
sS'shapes'
p6567
I19
sS'collect'
p6568
I28
sS'arthur'
p6569
I28
sS'essential'
p6570
I87
sS'fucking'
p6571
I12
sS'understood'
p6572
I57
sS'gradually'
p6573
I37
sS'shelley'
p6574
I11
sS'seller'
p6575
I19
sS'innovation'
p6576
I17
sS'anne'
p6577
I44
sS'headmaster'
p6578
I12
sS'anna'
p6579
I28
sS'martin'
p6580
I53
sS'refused'
p6581
I63
sS'intense'
p6582
I23
sS'russell'
p6583
I21
sS'cautious'
p6584
I11
sS'range'
p6585
I196
sS'hatred'
p6586
I11
sS'canal'
p6587
I21
sS'impressed'
p6588
I16
sS'tenth'
p6589
I11
sS'rows'
p6590
I20
sS'question'
p6591
I15
sS'fast'
p6592
I31
sS'prey'
p6593
I16
sS'sections'
p6594
I46
sS'vienna'
p6595
I13
sS'files'
p6596
I29
sS'mountains'
p6597
I28
sS'criteria'
p6598
I39
sS'video-taped'
p6599
I38
sS'cloth'
p6600
I20
sS'repeatedly'
p6601
I13
sS'junior'
p6602
I28
sS'raising'
p6603
I25
sS'consist'
p6604
I12
sS'characteristic'
p6605
I13
sS'in respect of'
p6606
I29
sS'lifespan'
p6607
I37
sS'etc.'
p6608
I24
sS'called'
p6609
I329
sS'associated'
p6610
I19
sS'worthwhile'
p6611
I15
sS'stick'
p6612
I19
sS'commissioner'
p6613
I15
sS'warning'
p6614
I39
sS'rally'
p6615
I13
sS'graham'
p6616
I42
sS'lemon'
p6617
I12
sS'peace'
p6618
I89
sS'backs'
p6619
I12
sS'nick'
p6620
I28
sS'income'
p6621
I120
sS'nice'
p6622
I129
sS'users'
p6623
I65
sS'problems'
p6624
I275
sS'breasts'
p6625
I13
sS'helping'
p6626
I39
sS'generated'
p6627
I25
sS'allowing'
p6628
I43
sS'departments'
p6629
I42
sS'microsoft'
p6630
I20
sS'thames'
p6631
I18
sS'narrative'
p6632
I11
sS'once'
p6633
I90
sS'in case'
p6634
I22
sS'issued'
p6635
I56
sS'resistance'
p6636
I37
sS'steve'
p6637
I43
sS'gang'
p6638
I15
sS'winds'
p6639
I14
sS'adjustment'
p6640
I14
sS'contributions'
p6641
I28
sS'issues'
p6642
I121
sS'simon'
p6643
I43
sS'disposal'
p6644
I21
sS'languages'
p6645
I34
sS'stable'
p6646
I31
sS'breach'
p6647
I31
sS'include'
p6648
I152
sS'dramatically'
p6649
I15
sS'breathing'
p6650
I14
sS'seized'
p6651
I17
sS'bedrooms'
p6652
I16
sS'along with'
p6653
I51
sS'g / g'
p6654
I40
sS'wishes'
p6655
I15
sS'as long as'
p6656
I29
sS'drinking'
p6657
I15
sS'ibm'
p6658
I48
sS'notes'
p6659
I57
sS'deals'
p6660
I12
sS'dealt'
p6661
I35
sS'relation'
p6662
I28
sS'noted'
p6663
I61
sS'concluded'
p6664
I31
sS'smaller'
p6665
I73
sS'sensation'
p6666
I14
sS'acid'
p6667
I49
sS'by now'
p6668
I22
sS'folk'
p6669
I21
sS'universities'
p6670
I27
sS'concessions'
p6671
I11
sS'networks'
p6672
I19
sS'waiting'
p6673
I10
sS'capital'
p6674
I133
sS'chose'
p6675
I28
sS'degree'
p6676
I100
sS'pushing'
p6677
I23
sS'youngest'
p6678
I12
sS'explore'
p6679
I23
sS'separation'
p6680
I19
sS'1961'
p6681
I14
sS'larger'
p6682
I76
sS'leaving'
p6683
I96
sS'suggests'
p6684
I67
sS'examinations'
p6685
I14
sS'apple'
p6686
I27
sS'scales'
p6687
I15
sS'egypt'
p6688
I22
sS'motor'
p6689
I42
sS'duck'
p6690
I12
sS'apply'
p6691
I79
sS'fed'
p6692
I22
sS'fee'
p6693
I29
sS'from'
p6694
I4134
sS'stream'
p6695
I25
sS'consumption'
p6696
I33
sS'&'
p6697
I136
sS'few'
p6698
I450
sS'examination'
p6699
I48
sS'bitterly'
p6700
I11
sS'timetable'
p6701
I11
sS'subsidies'
p6702
I11
sS'possession'
p6703
I29
sS'clever'
p6704
I24
sS'journalists'
p6705
I18
sS'inclined'
p6706
I13
sS'equity'
p6707
I20
sS'infection'
p6708
I27
sS'rabbit'
p6709
I14
sS'women'
p6710
I399
sS'topic'
p6711
I24
sS'critic'
p6712
I12
sS'anywhere'
p6713
I41
sS'proof'
p6714
I27
sS'tap'
p6715
I12
sS'calculation'
p6716
I11
sS'tax'
p6717
I156
sS'assumptions'
p6718
I25
sS'something'
p6719
I526
sS'rape'
p6720
I19
sS'sir'
p6721
I188
sS'united'
p6722
I12
sS'syndrome'
p6723
I12
sS'sit'
p6724
I86
sS'six'
p6725
I303
sS'carries'
p6726
I18
sS'serum'
p6727
I13
sS'traders'
p6728
I12
sS'brian'
p6729
I45
sS'instead'
p6730
I75
sS'struggled'
p6731
I14
sS'panic'
p6732
I17
sS'sin'
p6733
I13
sS'tension'
p6734
I33
sS'cupboard'
p6735
I14
sS'attend'
p6736
I36
sS'abuse'
p6737
I34
sS'wrist'
p6738
I11
sS'ethnic'
p6739
I23
sS'tiles'
p6740
I12
sS'light'
p6741
I62
sS'interrupted'
p6742
I14
sS'honestly'
p6743
I14
sS'interpreted'
p6744
I21
sS'whilst'
p6745
I58
sS'looks'
p6746
I13
sS'superior'
p6747
I20
sS'ships'
p6748
I27
sS'permanent'
p6749
I45
sS'choose'
p6750
I68
sS'orange'
p6751
I13
sS'covered'
p6752
I79
sS'bye'
p6753
I17
sS'crowds'
p6754
I13
sS'crash'
p6755
I21
sS'orthodox'
p6756
I12
sS'flour'
p6757
I10
sS'material'
p6758
I131
sS'flew'
p6759
I23
sS'ferguson'
p6760
I10
sS'ambition'
p6761
I13
sS'republican'
p6762
I12
sS'fled'
p6763
I14
sS'successor'
p6764
I14
sS'articles'
p6765
I29
sS'profound'
p6766
I14
sS'billy'
p6767
I22
sS'trap'
p6768
I13
sS'bills'
p6769
I30
sS'tray'
p6770
I14
sS'privatisation'
p6771
I13
sS'related'
p6772
I30
sS'doubled'
p6773
I12
sS'relates'
p6774
I15
sS'80'
p6775
I26
sS'out'
p6776
I1542
sS'category'
p6777
I33
sS'respects'
p6778
I15
sS'blues'
p6779
I12
sS'chaos'
p6780
I16
sS'supports'
p6781
I14
sS'integrated'
p6782
I17
sS'fun'
p6783
I17
sS'dictionary'
p6784
I19
sS'york'
p6785
I99
sS'conflicts'
p6786
I15
sS'philip'
p6787
I40
sS'tenant'
p6788
I26
sS'organic'
p6789
I21
sS'islamic'
p6790
I13
sS'phrases'
p6791
I13
sS'conversation'
p6792
I55
sS'ltd'
p6793
I51
sS'hence'
p6794
I48
sS'hitherto'
p6795
I16
sS'noticed'
p6796
I53
sS'publication'
p6797
I37
sS'unknown'
p6798
I43
sS'accent'
p6799
I14
sS'priority'
p6800
I34
sS'their'
p6801
I2608
sS'shell'
p6802
I20
sS'shelf'
p6803
I14
sS'reversed'
p6804
I11
sS'shallow'
p6805
I14
sS'reflecting'
p6806
I15
sS'july'
p6807
I119
sS'institution'
p6808
I49
sS'holland'
p6809
I16
sS'isolation'
p6810
I19
sS'geoff'
p6811
I12
sS'tommy'
p6812
I12
sS'patients'
p6813
I173
sS'sculpture'
p6814
I13
sS'creditors'
p6815
I12
sS'over there'
p6816
I18
sS'linked'
p6817
I40
sS'catholic'
p6818
I32
sS'afraid'
p6819
I60
sS'angle'
p6820
I24
sS'pupils'
p6821
I81
sS'russians'
p6822
I13
sS'as if'
p6823
I157
sS'agency'
p6824
I59
sS'which'
p6825
I3719
sS'vegetation'
p6826
I10
sS'ray'
p6827
I18
sS'clash'
p6828
I11
sS'centre'
p6829
I230
sS'petrol'
p6830
I24
sS'collaboration'
p6831
I13
sS'who'
p6832
I10
sS'accountants'
p6833
I12
sS'class'
p6834
I181
sS'statute'
p6835
I16
sS'deny'
p6836
I23
sS'pipe'
p6837
I23
sS'goals'
p6838
I47
sS'perceptions'
p6839
I12
sS'chances'
p6840
I30
sS'please'
p6841
I11
sS'agreed'
p6842
I10
sS'chapters'
p6843
I20
sS'purely'
p6844
I26
sS'planning'
p6845
I50
sS'democrats'
p6846
I20
sS'dorothy'
p6847
I12
sS'chicken'
p6848
I20
sS'pleased'
p6849
I47
sS'ear'
p6850
I29
sS'operational'
p6851
I17
sS'surroundings'
p6852
I12
sS'candidates'
p6853
I40
sS'piano'
p6854
I20
sS'thousands'
p6855
I55
sS'watching'
p6856
I65
sS'plaintiff'
p6857
I30
sS'midnight'
p6858
I19
sS'ones'
p6859
I118
sS'words'
p6860
I244
sS'chips'
p6861
I18
sS'ended'
p6862
I73
sS'married'
p6863
I47
sS'generations'
p6864
I21
sS'view'
p6865
I16
sS'europe'
p6866
I181
sS'requirement'
p6867
I32
sS'acquired'
p6868
I37
sS'module'
p6869
I32
sS'responses'
p6870
I26
sS'closer'
p6871
I21
sS'cruel'
p6872
I14
sS'superb'
p6873
I21
sS'genius'
p6874
I11
sS'identification'
p6875
I22
sS'closed'
p6876
I20
sS'crude'
p6877
I13
sS'stories'
p6878
I48
sS'bought'
p6879
I91
sS'publishers'
p6880
I15
sS'recipe'
p6881
I12
sS'in addition to'
p6882
I34
sS'ability'
p6883
I91
sS'opening'
p6884
I26
sS'joy'
p6885
I24
sS'agencies'
p6886
I37
sS'embarrassment'
p6887
I13
sS'job'
p6888
I229
sS'takeover'
p6889
I11
sS'hypothesis'
p6890
I17
sS'joe'
p6891
I43
sS'screamed'
p6892
I11
sS'respondents'
p6893
I11
sS'april'
p6894
I147
sS'grain'
p6895
I18
sS'\xc2\xa3100'
p6896
I13
sS'safely'
p6897
I17
sS'grounds'
p6898
I61
sS'wall'
p6899
I114
sS'environments'
p6900
I14
sS'walk'
p6901
I39
sS'sequences'
p6902
I14
sS'respect'
p6903
I49
sS'withdrawn'
p6904
I17
sS'provinces'
p6905
I11
sS'i.e.'
p6906
I46
sS'decent'
p6907
I19
sS'bbc'
p6908
I43
sS'charts'
p6909
I11
sS'tutor'
p6910
I11
sS'agreements'
p6911
I27
sS'remedies'
p6912
I10
sS'mike'
p6913
I43
sS'liverpool'
p6914
I55
sS'painted'
p6915
I24
sS'sufficient'
p6916
I59
sS'scrutiny'
p6917
I12
sS'ensuring'
p6918
I19
sS'improved'
p6919
I21
sS'present'
p6920
I33
sS'abandoned'
p6921
I26
sS'unlike'
p6922
I40
sS'choices'
p6923
I18
sS'will'
p6924
I14
sS'wild'
p6925
I51
sS'supply'
p6926
I26
sS'layer'
p6927
I25
sS'thus'
p6928
I205
sS'encouragement'
p6929
I15
sS'gothic'
p6930
I12
sS'dual'
p6931
I12
sS'education'
p6932
I260
sS'perhaps'
p6933
I350
sS'radiation'
p6934
I17
sS'cross'
p6935
I23
sS'member'
p6936
I175
sS'adverse'
p6937
I12
sS'unity'
p6938
I28
sS'geographical'
p6939
I16
sS'largest'
p6940
I58
sS'units'
p6941
I71
sS'gets'
p6942
I78
sS'difficult'
p6943
I220
sS'conceived'
p6944
I12
sS'student'
p6945
I77
sS'collar'
p6946
I14
sS'correspondent'
p6947
I20
sS'approve'
p6948
I11
sS'ingredients'
p6949
I13
sS'fighting'
p6950
I21
sS'english'
p6951
I81
sS'firstly'
p6952
I17
sS'undertaken'
p6953
I27
sS'realised'
p6954
I49
sS'excessive'
p6955
I17
sS'cried'
p6956
I30
sS'heavily'
p6957
I41
sS'percent'
p6958
I29
sS'wealthy'
p6959
I14
sS'obtain'
p6960
I46
sS'fishing'
p6961
I32
sS'happiness'
p6962
I17
sS'rapid'
p6963
I36
sS'1959'
p6964
I12
sS'drunk'
p6965
I16
sS'sky'
p6966
I50
sS'hall'
p6967
I118
sS'book'
p6968
I243
sS'adoption'
p6969
I16
sS'attractive'
p6970
I52
sS'usage'
p6971
I12
sS'acted'
p6972
I23
sS'identical'
p6973
I22
sS'branch'
p6974
I53
sS'myth'
p6975
I15
sS'republics'
p6976
I15
sS'all right*'
p6977
I64
sS'know'
p6978
I1233
sS'press'
p6979
I29
sS'helpful'
p6980
I32
sS'january'
p6981
I102
sS'exceed'
p6982
I10
sS'sequence'
p6983
I42
sS'scared'
p6984
I12
sS'church'
p6985
I203
sS'searching'
p6986
I19
sS'growth'
p6987
I130
sS'export'
p6988
I21
sS'empire'
p6989
I36
sS'employment'
p6990
I107
sS'leaf'
p6991
I15
sS'lead'
p6992
I55
sS'mines'
p6993
I14
sS'from time to time'
p6994
I17
sS'leader'
p6995
I93
sS'analysed'
p6996
I18
sS'murdered'
p6997
I14
sS'analyses'
p6998
I11
sS'throne'
p6999
I12
sS'rare'
p7000
I46
sS'carried'
p7001
I138
sS'extension'
p7002
I35
sS'getting'
p7003
I203
sS'column'
p7004
I28
sS'universe'
p7005
I26
sS'dependence'
p7006
I13
sS'urged'
p7007
I23
sS'fear'
p7008
I25
sS'carrier'
p7009
I13
sS'sweat'
p7010
I11
sS'emperor'
p7011
I21
sS'owl'
p7012
I11
sS'own'
p7013
I16
sS'owe'
p7014
I13
sS'weather'
p7015
I57
sS'promise'
p7016
I15
sS'brush'
p7017
I13
sS'registration'
p7018
I22
sS'prompted'
p7019
I16
sS'hitting'
p7020
I11
sS'van'
p7021
I21
sS'transfer'
p7022
I18
sS'*'
p7023
I15
sS'continental'
p7024
I17
sS'intention'
p7025
I47
sS'breeding'
p7026
I19
sS'cliff'
p7027
I11
sS'funds'
p7028
I62
sS'volume'
p7029
I54
sS'hurried'
p7030
I12
sS'made'
p7031
I943
sS'tactics'
p7032
I14
sS'provided that'
p7033
I11
sS'whether'
p7034
I332
sS'record'
p7035
I23
sS'below'
p7036
I55
sS'gaps'
p7037
I11
sS'ruling'
p7038
I12
sS'cake'
p7039
I28
sS'demonstrate'
p7040
I24
sS'broadly'
p7041
I16
sS'jenny'
p7042
I18
sS'inadequate'
p7043
I23
sS'goodness'
p7044
I15
sS'mutual'
p7045
I22
sS"'ll"
p7046
I726
sS'incredible'
p7047
I12
sS'boot'
p7048
I15
sS'other'
p7049
I85
sS'boom'
p7050
I16
sS'sick'
p7051
I44
sS'conclusion'
p7052
I51
sS'kinds'
p7053
I47
sS'june'
p7054
I146
sS'margaret'
p7055
I38
sS'priced'
p7056
I11
sS'incurred'
p7057
I12
sS'upwards'
p7058
I16
sS'ranks'
p7059
I16
sS'volumes'
p7060
I16
sS'ideological'
p7061
I17
sS'tonnes'
p7062
I19
s.